
build/triangle.elf:     file format elf32-avr


Disassembly of section .text:

00000000 <__vectors>:
       0:	0c 94 34 00 	jmp	0x68	; 0x68 <__ctors_end>
       4:	0c 94 5d 00 	jmp	0xba	; 0xba <__bad_interrupt>
       8:	0c 94 5d 00 	jmp	0xba	; 0xba <__bad_interrupt>
       c:	0c 94 5d 00 	jmp	0xba	; 0xba <__bad_interrupt>
      10:	0c 94 5d 00 	jmp	0xba	; 0xba <__bad_interrupt>
      14:	0c 94 5d 00 	jmp	0xba	; 0xba <__bad_interrupt>
      18:	0c 94 03 02 	jmp	0x406	; 0x406 <__vector_6>
      1c:	0c 94 5d 00 	jmp	0xba	; 0xba <__bad_interrupt>
      20:	0c 94 5d 00 	jmp	0xba	; 0xba <__bad_interrupt>
      24:	0c 94 5d 00 	jmp	0xba	; 0xba <__bad_interrupt>
      28:	0c 94 5d 00 	jmp	0xba	; 0xba <__bad_interrupt>
      2c:	0c 94 43 07 	jmp	0xe86	; 0xe86 <__vector_11>
      30:	0c 94 5d 00 	jmp	0xba	; 0xba <__bad_interrupt>
      34:	0c 94 5d 00 	jmp	0xba	; 0xba <__bad_interrupt>
      38:	0c 94 a1 05 	jmp	0xb42	; 0xb42 <__vector_14>
      3c:	0c 94 5d 00 	jmp	0xba	; 0xba <__bad_interrupt>
      40:	0c 94 5d 00 	jmp	0xba	; 0xba <__bad_interrupt>
      44:	0c 94 5d 00 	jmp	0xba	; 0xba <__bad_interrupt>
      48:	0c 94 5d 00 	jmp	0xba	; 0xba <__bad_interrupt>
      4c:	0c 94 5d 00 	jmp	0xba	; 0xba <__bad_interrupt>
      50:	0c 94 5d 00 	jmp	0xba	; 0xba <__bad_interrupt>
      54:	0c 94 5d 00 	jmp	0xba	; 0xba <__bad_interrupt>
      58:	0c 94 5d 00 	jmp	0xba	; 0xba <__bad_interrupt>
      5c:	0c 94 60 07 	jmp	0xec0	; 0xec0 <__vector_23>
      60:	0c 94 5d 00 	jmp	0xba	; 0xba <__bad_interrupt>
      64:	0c 94 5d 00 	jmp	0xba	; 0xba <__bad_interrupt>

00000068 <__ctors_end>:
      68:	11 24       	eor	r1, r1
      6a:	1f be       	out	0x3f, r1	; 63
      6c:	cf ef       	ldi	r28, 0xFF	; 255
      6e:	d8 e0       	ldi	r29, 0x08	; 8
      70:	de bf       	out	0x3e, r29	; 62
      72:	cd bf       	out	0x3d, r28	; 61

00000074 <wdt_init>:
#ifndef BOOTLOADER
// Ensure that wdt is inactive after system reset.
void wdt_init(void) __attribute__((naked)) __attribute__((section(".init3")));

void wdt_init(void) {
    MCUSR = 0;
      74:	14 be       	out	0x34, r1	; 52

00000076 <.LBB96>:
		);
	}
	else
	{
        uint8_t register temp_reg;
		__asm__ __volatile__ (
      76:	0f b6       	in	r0, 0x3f	; 63
      78:	f8 94       	cli
      7a:	a8 95       	wdr
      7c:	80 91 60 00 	lds	r24, 0x0060	; 0x800060 <__DATA_REGION_ORIGIN__>
      80:	88 61       	ori	r24, 0x18	; 24
      82:	80 93 60 00 	sts	0x0060, r24	; 0x800060 <__DATA_REGION_ORIGIN__>
      86:	10 92 60 00 	sts	0x0060, r1	; 0x800060 <__DATA_REGION_ORIGIN__>
      8a:	0f be       	out	0x3f, r0	; 63

0000008c <__do_copy_data>:
      8c:	11 e0       	ldi	r17, 0x01	; 1

0000008e <.Loc.1>:
      8e:	a0 e0       	ldi	r26, 0x00	; 0

00000090 <.Loc.2>:
      90:	b1 e0       	ldi	r27, 0x01	; 1

00000092 <.Loc.3>:
      92:	e8 eb       	ldi	r30, 0xB8	; 184

00000094 <.Loc.4>:
      94:	fa e1       	ldi	r31, 0x1A	; 26

00000096 <.Loc.5>:
      96:	02 c0       	rjmp	.+4      	; 0x9c <.L__do_copy_data_start>

00000098 <.L__do_copy_data_loop>:
      98:	05 90       	lpm	r0, Z+

0000009a <.Loc.7>:
      9a:	0d 92       	st	X+, r0

0000009c <.L__do_copy_data_start>:
      9c:	ae 30       	cpi	r26, 0x0E	; 14

0000009e <.Loc.9>:
      9e:	b1 07       	cpc	r27, r17

000000a0 <.Loc.10>:
      a0:	d9 f7       	brne	.-10     	; 0x98 <.L__do_copy_data_loop>

000000a2 <__do_clear_bss>:
      a2:	21 e0       	ldi	r18, 0x01	; 1

000000a4 <.Loc.1>:
      a4:	ae e0       	ldi	r26, 0x0E	; 14

000000a6 <.Loc.2>:
      a6:	b1 e0       	ldi	r27, 0x01	; 1

000000a8 <.Loc.3>:
      a8:	01 c0       	rjmp	.+2      	; 0xac <.Loc.5>

000000aa <.Loc.4>:
      aa:	1d 92       	st	X+, r1

000000ac <.Loc.5>:
      ac:	a8 38       	cpi	r26, 0x88	; 136

000000ae <.Loc.6>:
      ae:	b2 07       	cpc	r27, r18

000000b0 <.Loc.7>:
      b0:	e1 f7       	brne	.-8      	; 0xaa <.Loc.4>

000000b2 <L0^A>:
      b2:	0e 94 fc 09 	call	0x13f8	; 0x13f8 <main>
      b6:	0c 94 48 0d 	jmp	0x1a90	; 0x1a90 <_exit>

000000ba <__bad_interrupt>:
      ba:	0c 94 00 00 	jmp	0	; 0x0 <__vectors>

000000be <message_tx>:
    dist = estimate_distance(&dist);
}

message_t *message_tx(){
    return &msg;
}
      be:	8b e1       	ldi	r24, 0x1B	; 27
      c0:	91 e0       	ldi	r25, 0x01	; 1
      c2:	08 95       	ret

000000c4 <message_tx_success>:

void message_tx_success(){
    message_sent = 1;
      c4:	81 e0       	ldi	r24, 0x01	; 1
      c6:	80 93 28 01 	sts	0x0128, r24	; 0x800128 <message_sent>

000000ca <.Loc.6>:
}
      ca:	08 95       	ret

000000cc <message_rx>:
    rx_kilo_id = m->data[0];
      cc:	fc 01       	movw	r30, r24
      ce:	80 81       	ld	r24, Z

000000d0 <.LVL1>:
      d0:	80 93 29 01 	sts	0x0129, r24	; 0x800129 <rx_kilo_id>

000000d4 <.Loc.11>:
    new_message = 1;
      d4:	81 e0       	ldi	r24, 0x01	; 1
      d6:	90 e0       	ldi	r25, 0x00	; 0
      d8:	90 93 0f 01 	sts	0x010F, r25	; 0x80010f <new_message+0x1>
      dc:	80 93 0e 01 	sts	0x010E, r24	; 0x80010e <new_message>

000000e0 <.Loc.13>:
    dist_val = *d;
      e0:	fb 01       	movw	r30, r22

000000e2 <.LVL2>:
      e2:	80 81       	ld	r24, Z
      e4:	91 81       	ldd	r25, Z+1	; 0x01
      e6:	a2 81       	ldd	r26, Z+2	; 0x02
      e8:	b3 81       	ldd	r27, Z+3	; 0x03
      ea:	80 93 17 01 	sts	0x0117, r24	; 0x800117 <dist_val>
      ee:	90 93 18 01 	sts	0x0118, r25	; 0x800118 <dist_val+0x1>
      f2:	a0 93 19 01 	sts	0x0119, r26	; 0x800119 <dist_val+0x2>
      f6:	b0 93 1a 01 	sts	0x011A, r27	; 0x80011a <dist_val+0x3>

000000fa <.Loc.16>:
    dist = estimate_distance(&dist);
      fa:	87 e2       	ldi	r24, 0x27	; 39
      fc:	91 e0       	ldi	r25, 0x01	; 1
      fe:	0e 94 02 03 	call	0x604	; 0x604 <estimate_distance>

00000102 <.LVL3>:
     102:	80 93 27 01 	sts	0x0127, r24	; 0x800127 <dist>

00000106 <.Loc.19>:
}
     106:	08 95       	ret

00000108 <setup>:
    msg.type = NORMAL;
     108:	10 92 24 01 	sts	0x0124, r1	; 0x800124 <msg+0x9>

0000010c <.Loc.23>:
    msg.data[0] = kilo_uid;
     10c:	80 91 83 01 	lds	r24, 0x0183	; 0x800183 <kilo_uid>
     110:	80 93 1b 01 	sts	0x011B, r24	; 0x80011b <msg>

00000114 <.Loc.25>:
    msg.crc = message_crc(&msg);
     114:	8b e1       	ldi	r24, 0x1B	; 27
     116:	91 e0       	ldi	r25, 0x01	; 1
     118:	0e 94 5d 09 	call	0x12ba	; 0x12ba <message_crc>

0000011c <.LVL4>:
     11c:	90 93 26 01 	sts	0x0126, r25	; 0x800126 <msg+0xb>
     120:	80 93 25 01 	sts	0x0125, r24	; 0x800125 <msg+0xa>

00000124 <.Loc.28>:
    if (kilo_uid == 2){
     124:	80 91 83 01 	lds	r24, 0x0183	; 0x800183 <kilo_uid>
     128:	90 91 84 01 	lds	r25, 0x0184	; 0x800184 <kilo_uid+0x1>
     12c:	02 97       	sbiw	r24, 0x02	; 2
     12e:	09 f0       	breq	.+2      	; 0x132 <.L10>

00000130 <.L5>:
}
     130:	08 95       	ret

00000132 <.L10>:
    if (cur_motion != new_motion) {
     132:	80 91 12 01 	lds	r24, 0x0112	; 0x800112 <cur_motion>
     136:	81 30       	cpi	r24, 0x01	; 1
     138:	d9 f3       	breq	.-10     	; 0x130 <.L5>

0000013a <.Loc.35>:
        cur_motion = new_motion;
     13a:	81 e0       	ldi	r24, 0x01	; 1
     13c:	80 93 12 01 	sts	0x0112, r24	; 0x800112 <cur_motion>

00000140 <.LBB9>:
                spinup_motors();
     140:	0e 94 2d 02 	call	0x45a	; 0x45a <spinup_motors>

00000144 <.LVL7>:
                set_motors(kilo_straight_left, kilo_straight_right);
     144:	60 91 86 01 	lds	r22, 0x0186	; 0x800186 <kilo_straight_right>
     148:	80 91 85 01 	lds	r24, 0x0185	; 0x800185 <kilo_straight_left>
     14c:	0c 94 28 02 	jmp	0x450	; 0x450 <set_motors>

00000150 <loop>:
    if (message_sent) {
     150:	80 91 28 01 	lds	r24, 0x0128	; 0x800128 <message_sent>
     154:	81 11       	cpse	r24, r1
     156:	3c c0       	rjmp	.+120    	; 0x1d0 <.L26>

00000158 <.L12>:
    if (kilo_uid == middle_id){
     158:	20 91 02 01 	lds	r18, 0x0102	; 0x800102 <middle_id>

0000015c <.Loc.46>:
     15c:	80 91 83 01 	lds	r24, 0x0183	; 0x800183 <kilo_uid>
     160:	90 91 84 01 	lds	r25, 0x0184	; 0x800184 <kilo_uid+0x1>
     164:	28 17       	cp	r18, r24
     166:	19 06       	cpc	r1, r25
     168:	09 f0       	breq	.+2      	; 0x16c <.L27>

0000016a <.L11>:
}
     16a:	08 95       	ret

0000016c <.L27>:
        if (rx_kilo_id == 1){
     16c:	80 91 27 01 	lds	r24, 0x0127	; 0x800127 <dist>

00000170 <.Loc.49>:
     170:	90 91 29 01 	lds	r25, 0x0129	; 0x800129 <rx_kilo_id>
     174:	91 30       	cpi	r25, 0x01	; 1
     176:	c9 f1       	breq	.+114    	; 0x1ea <.L28>

00000178 <.Loc.50>:
            last_dist2 = dist;
     178:	80 93 10 01 	sts	0x0110, r24	; 0x800110 <last_dist2>
     17c:	80 91 11 01 	lds	r24, 0x0111	; 0x800111 <last_dist1>

00000180 <.L16>:
        if (abs(last_dist1 - desired_side_dist) < tol && abs(last_dist2 - desired_side_dist) < tol ){
     180:	40 91 01 01 	lds	r20, 0x0101	; 0x800101 <desired_side_dist>
     184:	50 e0       	ldi	r21, 0x00	; 0

00000186 <.Loc.55>:
     186:	20 91 00 01 	lds	r18, 0x0100	; 0x800100 <tol>
     18a:	30 e0       	ldi	r19, 0x00	; 0

0000018c <.Loc.56>:
     18c:	90 e0       	ldi	r25, 0x00	; 0

0000018e <.Loc.57>:
     18e:	84 1b       	sub	r24, r20
     190:	95 0b       	sbc	r25, r21
     192:	97 ff       	sbrs	r25, 7
     194:	03 c0       	rjmp	.+6      	; 0x19c <.L18>
     196:	91 95       	neg	r25
     198:	81 95       	neg	r24
     19a:	91 09       	sbc	r25, r1

0000019c <.L18>:
     19c:	82 17       	cp	r24, r18
     19e:	93 07       	cpc	r25, r19
     1a0:	24 f7       	brge	.-56     	; 0x16a <.L11>

000001a2 <.Loc.59>:
     1a2:	80 91 10 01 	lds	r24, 0x0110	; 0x800110 <last_dist2>
     1a6:	90 e0       	ldi	r25, 0x00	; 0

000001a8 <.Loc.60>:
     1a8:	84 1b       	sub	r24, r20
     1aa:	95 0b       	sbc	r25, r21
     1ac:	97 ff       	sbrs	r25, 7
     1ae:	03 c0       	rjmp	.+6      	; 0x1b6 <.L19>
     1b0:	91 95       	neg	r25
     1b2:	81 95       	neg	r24
     1b4:	91 09       	sbc	r25, r1

000001b6 <.L19>:
     1b6:	82 17       	cp	r24, r18
     1b8:	93 07       	cpc	r25, r19
     1ba:	bc f6       	brge	.-82     	; 0x16a <.L11>

000001bc <.LBB21>:
    if (cur_motion != new_motion) {
     1bc:	80 91 12 01 	lds	r24, 0x0112	; 0x800112 <cur_motion>
     1c0:	88 23       	and	r24, r24
     1c2:	99 f2       	breq	.-90     	; 0x16a <.L11>

000001c4 <.Loc.66>:
        cur_motion = new_motion;
     1c4:	10 92 12 01 	sts	0x0112, r1	; 0x800112 <cur_motion>

000001c8 <.Loc.68>:
                set_motors(0,0);
     1c8:	60 e0       	ldi	r22, 0x00	; 0
     1ca:	80 e0       	ldi	r24, 0x00	; 0
     1cc:	0c 94 28 02 	jmp	0x450	; 0x450 <set_motors>

000001d0 <.L26>:
        message_sent = 0;
     1d0:	10 92 28 01 	sts	0x0128, r1	; 0x800128 <message_sent>

000001d4 <.Loc.73>:
        set_color(RGB(1,0,0));
     1d4:	81 e0       	ldi	r24, 0x01	; 1
     1d6:	0e 94 1d 06 	call	0xc3a	; 0xc3a <set_color>

000001da <.LVL11>:
        delay(20);
     1da:	84 e1       	ldi	r24, 0x14	; 20
     1dc:	90 e0       	ldi	r25, 0x00	; 0
     1de:	0e 94 1a 02 	call	0x434	; 0x434 <delay>

000001e2 <.LVL12>:
        set_color(RGB(0,0,0));
     1e2:	80 e0       	ldi	r24, 0x00	; 0
     1e4:	0e 94 1d 06 	call	0xc3a	; 0xc3a <set_color>

000001e8 <.LVL13>:
     1e8:	b7 cf       	rjmp	.-146    	; 0x158 <.L12>

000001ea <.L28>:
            last_dist1 = dist;
     1ea:	80 93 11 01 	sts	0x0111, r24	; 0x800111 <last_dist1>
     1ee:	c8 cf       	rjmp	.-112    	; 0x180 <.L16>

000001f0 <set_motion>:
    if (cur_motion != new_motion) {
     1f0:	90 91 12 01 	lds	r25, 0x0112	; 0x800112 <cur_motion>
     1f4:	98 17       	cp	r25, r24
     1f6:	c9 f0       	breq	.+50     	; 0x22a <.L29>

000001f8 <.Loc.81>:
        cur_motion = new_motion;
     1f8:	80 93 12 01 	sts	0x0112, r24	; 0x800112 <cur_motion>

000001fc <.Loc.83>:
        switch(cur_motion) {
     1fc:	82 30       	cpi	r24, 0x02	; 2
     1fe:	d1 f0       	breq	.+52     	; 0x234 <.L31>
     200:	50 f4       	brcc	.+20     	; 0x216 <.L32>
     202:	88 23       	and	r24, r24
     204:	99 f0       	breq	.+38     	; 0x22c <.L37>

00000206 <.LBB26>:
                spinup_motors();
     206:	0e 94 2d 02 	call	0x45a	; 0x45a <spinup_motors>

0000020a <.LVL16>:
                set_motors(kilo_straight_left, kilo_straight_right);
     20a:	60 91 86 01 	lds	r22, 0x0186	; 0x800186 <kilo_straight_right>
     20e:	80 91 85 01 	lds	r24, 0x0185	; 0x800185 <kilo_straight_left>
     212:	0c 94 28 02 	jmp	0x450	; 0x450 <set_motors>

00000216 <.L32>:
        switch(cur_motion) {
     216:	83 30       	cpi	r24, 0x03	; 3
     218:	39 f4       	brne	.+14     	; 0x228 <.L38>

0000021a <.Loc.89>:
                spinup_motors();
     21a:	0e 94 2d 02 	call	0x45a	; 0x45a <spinup_motors>

0000021e <.LVL18>:
                set_motors(0, kilo_turn_right); 
     21e:	60 91 73 01 	lds	r22, 0x0173	; 0x800173 <kilo_turn_right>
     222:	80 e0       	ldi	r24, 0x00	; 0
     224:	0c 94 28 02 	jmp	0x450	; 0x450 <set_motors>

00000228 <.L38>:
     228:	08 95       	ret

0000022a <.L29>:
}
     22a:	08 95       	ret

0000022c <.L37>:
                set_motors(0,0);
     22c:	60 e0       	ldi	r22, 0x00	; 0
     22e:	80 e0       	ldi	r24, 0x00	; 0

00000230 <.LVL20>:
     230:	0c 94 28 02 	jmp	0x450	; 0x450 <set_motors>

00000234 <.L31>:
                spinup_motors();
     234:	0e 94 2d 02 	call	0x45a	; 0x45a <spinup_motors>

00000238 <.LVL22>:
                set_motors(kilo_turn_left, 0); 
     238:	60 e0       	ldi	r22, 0x00	; 0
     23a:	80 91 87 01 	lds	r24, 0x0187	; 0x800187 <kilo_turn_left>
     23e:	0c 94 28 02 	jmp	0x450	; 0x450 <set_motors>

00000242 <message_rx_dummy>:
void message_rx_dummy(message_t *m, distance_measurement_t *d) { }
     242:	08 95       	ret

00000244 <message_tx_dummy>:
message_t *message_tx_dummy() { return NULL; }
     244:	90 e0       	ldi	r25, 0x00	; 0
     246:	80 e0       	ldi	r24, 0x00	; 0
     248:	08 95       	ret

0000024a <message_tx_success_dummy>:
void message_tx_success_dummy() {}
     24a:	08 95       	ret

0000024c <kilo_init>:
void kilo_init() {
     24c:	cf 92       	push	r12

0000024e <.LCFI0>:
     24e:	df 92       	push	r13

00000250 <.LCFI1>:
     250:	ef 92       	push	r14

00000252 <.LCFI2>:
     252:	ff 92       	push	r15

00000254 <.LCFI3>:
     254:	1f 93       	push	r17

00000256 <.LCFI4>:
     256:	cf 93       	push	r28

00000258 <.LCFI5>:
     258:	df 93       	push	r29

0000025a <.LCFI6>:
    cli();
     25a:	f8 94       	cli

0000025c <.Loc.9>:
    ports_off();
     25c:	14 b8       	out	0x04, r1	; 4

0000025e <.Loc.10>:
     25e:	17 b8       	out	0x07, r1	; 7

00000260 <.Loc.11>:
     260:	1a b8       	out	0x0a, r1	; 10

00000262 <.Loc.12>:
     262:	15 b8       	out	0x05, r1	; 5

00000264 <.Loc.13>:
     264:	18 b8       	out	0x08, r1	; 8

00000266 <.Loc.14>:
     266:	1b b8       	out	0x0b, r1	; 11

00000268 <.Loc.15>:
    ports_on();
     268:	52 9a       	sbi	0x0a, 2	; 10

0000026a <.Loc.17>:
     26a:	5a 9a       	sbi	0x0b, 2	; 11

0000026c <.Loc.18>:
    tx_timer_setup();
     26c:	14 bc       	out	0x24, r1	; 36

0000026e <.Loc.20>:
     26e:	85 e0       	ldi	r24, 0x05	; 5
     270:	85 bd       	out	0x25, r24	; 37

00000272 <.Loc.21>:
     272:	8f ef       	ldi	r24, 0xFF	; 255
     274:	87 bd       	out	0x27, r24	; 39

00000276 <.Loc.22>:
     276:	82 e0       	ldi	r24, 0x02	; 2
     278:	80 93 6e 00 	sts	0x006E, r24	; 0x80006e <__DATA_REGION_ORIGIN__+0xe>

0000027c <.Loc.23>:
    rx_timer_setup();
     27c:	10 92 80 00 	sts	0x0080, r1	; 0x800080 <__DATA_REGION_ORIGIN__+0x20>

00000280 <.Loc.25>:
     280:	10 92 81 00 	sts	0x0081, r1	; 0x800081 <__DATA_REGION_ORIGIN__+0x21>

00000284 <.Loc.26>:
     284:	2f e8       	ldi	r18, 0x8F	; 143
     286:	3b e0       	ldi	r19, 0x0B	; 11
     288:	30 93 89 00 	sts	0x0089, r19	; 0x800089 <__DATA_REGION_ORIGIN__+0x29>
     28c:	20 93 88 00 	sts	0x0088, r18	; 0x800088 <__DATA_REGION_ORIGIN__+0x28>

00000290 <.Loc.27>:
     290:	80 93 6f 00 	sts	0x006F, r24	; 0x80006f <__DATA_REGION_ORIGIN__+0xf>

00000294 <.Loc.28>:
    motors_setup();
     294:	53 98       	cbi	0x0a, 3	; 10

00000296 <.Loc.30>:
     296:	23 98       	cbi	0x04, 3	; 4

00000298 <.Loc.31>:
     298:	91 ea       	ldi	r25, 0xA1	; 161
     29a:	90 93 b0 00 	sts	0x00B0, r25	; 0x8000b0 <__DATA_REGION_ORIGIN__+0x50>

0000029e <.Loc.32>:
     29e:	80 93 b1 00 	sts	0x00B1, r24	; 0x8000b1 <__DATA_REGION_ORIGIN__+0x51>

000002a2 <.Loc.33>:
     2a2:	10 92 b4 00 	sts	0x00B4, r1	; 0x8000b4 <__DATA_REGION_ORIGIN__+0x54>

000002a6 <.Loc.34>:
     2a6:	10 92 b3 00 	sts	0x00B3, r1	; 0x8000b3 <__DATA_REGION_ORIGIN__+0x53>

000002aa <.Loc.35>:
    acomp_setup();
     2aa:	8b e0       	ldi	r24, 0x0B	; 11
     2ac:	80 bf       	out	0x30, r24	; 48

000002ae <.Loc.37>:
     2ae:	83 e0       	ldi	r24, 0x03	; 3
     2b0:	80 93 7f 00 	sts	0x007F, r24	; 0x80007f <__DATA_REGION_ORIGIN__+0x1f>

000002b4 <.Loc.38>:
    adc_setup();
     2b4:	86 e0       	ldi	r24, 0x06	; 6
     2b6:	80 93 7c 00 	sts	0x007C, r24	; 0x80007c <__DATA_REGION_ORIGIN__+0x1c>

000002ba <.Loc.40>:
     2ba:	83 e8       	ldi	r24, 0x83	; 131
     2bc:	80 93 7a 00 	sts	0x007A, r24	; 0x80007a <__DATA_REGION_ORIGIN__+0x1a>

000002c0 <.Loc.41>:
     2c0:	80 91 7a 00 	lds	r24, 0x007A	; 0x80007a <__DATA_REGION_ORIGIN__+0x1a>
     2c4:	80 64       	ori	r24, 0x40	; 64
     2c6:	80 93 7a 00 	sts	0x007A, r24	; 0x80007a <__DATA_REGION_ORIGIN__+0x1a>

000002ca <.L5>:
     2ca:	80 91 7a 00 	lds	r24, 0x007A	; 0x80007a <__DATA_REGION_ORIGIN__+0x1a>
     2ce:	86 fd       	sbrc	r24, 6
     2d0:	fc cf       	rjmp	.-8      	; 0x2ca <.L5>

000002d2 <.Loc.46>:
    adc_trigger_high_gain();
     2d2:	10 92 7c 00 	sts	0x007C, r1	; 0x80007c <__DATA_REGION_ORIGIN__+0x1c>

000002d6 <.Loc.48>:
     2d6:	83 ea       	ldi	r24, 0xA3	; 163
     2d8:	80 93 7a 00 	sts	0x007A, r24	; 0x80007a <__DATA_REGION_ORIGIN__+0x1a>

000002dc <.Loc.49>:
     2dc:	81 e0       	ldi	r24, 0x01	; 1
     2de:	80 93 7b 00 	sts	0x007B, r24	; 0x80007b <__DATA_REGION_ORIGIN__+0x1b>

000002e2 <.Loc.50>:
    uint8_t osccal = eeprom_read_byte(EEPROM_OSCCAL);
     2e2:	81 e0       	ldi	r24, 0x01	; 1
     2e4:	90 e0       	ldi	r25, 0x00	; 0
     2e6:	0e 94 de 0c 	call	0x19bc	; 0x19bc <eeprom_read_byte>

000002ea <.LVL1>:
    if (osccal != 0xFF)
     2ea:	8f 3f       	cpi	r24, 0xFF	; 255
     2ec:	11 f0       	breq	.+4      	; 0x2f2 <.L6>

000002ee <.Loc.55>:
        OSCCAL = osccal;
     2ee:	80 93 66 00 	sts	0x0066, r24	; 0x800066 <__DATA_REGION_ORIGIN__+0x6>

000002f2 <.L6>:
    rx_busy = 0;
     2f2:	10 92 51 01 	sts	0x0151, r1	; 0x800151 <rx_busy>

000002f6 <.Loc.59>:
    rx_leadingbit = 1;
     2f6:	c1 e0       	ldi	r28, 0x01	; 1
     2f8:	c0 93 2a 01 	sts	0x012A, r28	; 0x80012a <rx_leadingbit>

000002fc <.Loc.61>:
    rx_leadingbyte = 1;
     2fc:	c0 93 6e 01 	sts	0x016E, r28	; 0x80016e <rx_leadingbyte>

00000300 <.Loc.63>:
    rx_byteindex = 0;
     300:	10 92 48 01 	sts	0x0148, r1	; 0x800148 <rx_byteindex>

00000304 <.Loc.65>:
    rx_bytevalue = 0;
     304:	10 92 82 01 	sts	0x0182, r1	; 0x800182 <rx_bytevalue>

00000308 <.Loc.67>:
    tx_mask = eeprom_read_byte(EEPROM_TXMASK);
     308:	80 e9       	ldi	r24, 0x90	; 144
     30a:	90 e0       	ldi	r25, 0x00	; 0

0000030c <.LVL2>:
     30c:	0e 94 de 0c 	call	0x19bc	; 0x19bc <eeprom_read_byte>

00000310 <.LVL3>:
     310:	80 93 47 01 	sts	0x0147, r24	; 0x800147 <tx_mask>

00000314 <.Loc.71>:
    if (tx_mask & ~TX_MASK_MAX)
     314:	80 91 47 01 	lds	r24, 0x0147	; 0x800147 <tx_mask>
     318:	88 73       	andi	r24, 0x38	; 56

0000031a <.Loc.73>:
     31a:	11 f0       	breq	.+4      	; 0x320 <.L7>

0000031c <.Loc.74>:
        tx_mask = TX_MASK_MIN;
     31c:	c0 93 47 01 	sts	0x0147, r28	; 0x800147 <tx_mask>

00000320 <.L7>:
    tx_clock = 0;
     320:	10 92 72 01 	sts	0x0172, r1	; 0x800172 <tx_clock+0x1>
     324:	10 92 71 01 	sts	0x0171, r1	; 0x800171 <tx_clock>

00000328 <.Loc.78>:
    tx_increment = 255;
     328:	8f ef       	ldi	r24, 0xFF	; 255
     32a:	90 e0       	ldi	r25, 0x00	; 0
     32c:	90 93 70 01 	sts	0x0170, r25	; 0x800170 <tx_increment+0x1>
     330:	80 93 6f 01 	sts	0x016F, r24	; 0x80016f <tx_increment>

00000334 <.Loc.80>:
    kilo_ticks = 0;
     334:	10 92 4d 01 	sts	0x014D, r1	; 0x80014d <kilo_ticks>
     338:	10 92 4e 01 	sts	0x014E, r1	; 0x80014e <kilo_ticks+0x1>
     33c:	10 92 4f 01 	sts	0x014F, r1	; 0x80014f <kilo_ticks+0x2>
     340:	10 92 50 01 	sts	0x0150, r1	; 0x800150 <kilo_ticks+0x3>

00000344 <.Loc.82>:
    kilo_state = IDLE;
     344:	81 e0       	ldi	r24, 0x01	; 1
     346:	80 93 16 01 	sts	0x0116, r24	; 0x800116 <kilo_state>

0000034a <.Loc.84>:
    kilo_tx_period = 3906;
     34a:	82 e4       	ldi	r24, 0x42	; 66
     34c:	9f e0       	ldi	r25, 0x0F	; 15
     34e:	90 93 81 01 	sts	0x0181, r25	; 0x800181 <kilo_tx_period+0x1>
     352:	80 93 80 01 	sts	0x0180, r24	; 0x800180 <kilo_tx_period>

00000356 <.Loc.86>:
    kilo_uid = eeprom_read_byte(EEPROM_UID) | eeprom_read_byte(EEPROM_UID+1)<<8;
     356:	80 eb       	ldi	r24, 0xB0	; 176
     358:	90 e0       	ldi	r25, 0x00	; 0
     35a:	0e 94 de 0c 	call	0x19bc	; 0x19bc <eeprom_read_byte>

0000035e <.LVL4>:
     35e:	c8 2f       	mov	r28, r24

00000360 <.Loc.88>:
     360:	81 eb       	ldi	r24, 0xB1	; 177
     362:	90 e0       	ldi	r25, 0x00	; 0
     364:	0e 94 de 0c 	call	0x19bc	; 0x19bc <eeprom_read_byte>

00000368 <.LVL5>:
     368:	d8 2f       	mov	r29, r24

0000036a <.Loc.90>:
     36a:	d0 93 84 01 	sts	0x0184, r29	; 0x800184 <kilo_uid+0x1>
     36e:	c0 93 83 01 	sts	0x0183, r28	; 0x800183 <kilo_uid>

00000372 <.Loc.91>:
    kilo_turn_left = eeprom_read_byte(EEPROM_LEFT_ROTATE);
     372:	85 e0       	ldi	r24, 0x05	; 5
     374:	90 e0       	ldi	r25, 0x00	; 0
     376:	0e 94 de 0c 	call	0x19bc	; 0x19bc <eeprom_read_byte>

0000037a <.LVL6>:
     37a:	80 93 87 01 	sts	0x0187, r24	; 0x800187 <kilo_turn_left>

0000037e <.Loc.94>:
    kilo_turn_right = eeprom_read_byte(EEPROM_RIGHT_ROTATE);
     37e:	89 e0       	ldi	r24, 0x09	; 9
     380:	90 e0       	ldi	r25, 0x00	; 0
     382:	0e 94 de 0c 	call	0x19bc	; 0x19bc <eeprom_read_byte>

00000386 <.LVL7>:
     386:	80 93 73 01 	sts	0x0173, r24	; 0x800173 <kilo_turn_right>

0000038a <.Loc.97>:
    kilo_straight_left = eeprom_read_byte(EEPROM_LEFT_STRAIGHT);
     38a:	8c e0       	ldi	r24, 0x0C	; 12
     38c:	90 e0       	ldi	r25, 0x00	; 0
     38e:	0e 94 de 0c 	call	0x19bc	; 0x19bc <eeprom_read_byte>

00000392 <.LVL8>:
     392:	80 93 85 01 	sts	0x0185, r24	; 0x800185 <kilo_straight_left>

00000396 <.Loc.100>:
    kilo_straight_right = eeprom_read_byte(EEPROM_RIGHT_STRAIGHT);
     396:	84 e1       	ldi	r24, 0x14	; 20
     398:	90 e0       	ldi	r25, 0x00	; 0
     39a:	0e 94 de 0c 	call	0x19bc	; 0x19bc <eeprom_read_byte>

0000039e <.LVL9>:
     39e:	80 93 86 01 	sts	0x0186, r24	; 0x800186 <kilo_straight_right>

000003a2 <.LVL10>:
    for (i=0; i<14; i++) {
     3a2:	82 e5       	ldi	r24, 0x52	; 82
     3a4:	e8 2e       	mov	r14, r24
     3a6:	81 e0       	ldi	r24, 0x01	; 1
     3a8:	f8 2e       	mov	r15, r24
     3aa:	9b e2       	ldi	r25, 0x2B	; 43
     3ac:	c9 2e       	mov	r12, r25
     3ae:	91 e0       	ldi	r25, 0x01	; 1
     3b0:	d9 2e       	mov	r13, r25

000003b2 <.Loc.106>:
    kilo_straight_right = eeprom_read_byte(EEPROM_RIGHT_STRAIGHT);
     3b2:	c0 e2       	ldi	r28, 0x20	; 32
     3b4:	d0 e0       	ldi	r29, 0x00	; 0

000003b6 <.L8>:
        kilo_irlow[i]=(eeprom_read_byte(EEPROM_IRLOW + i*2) <<8) | eeprom_read_byte(EEPROM_IRLOW + i*2+1);
     3b6:	ce 01       	movw	r24, r28
     3b8:	0e 94 de 0c 	call	0x19bc	; 0x19bc <eeprom_read_byte>

000003bc <.LVL12>:
     3bc:	18 2f       	mov	r17, r24

000003be <.Loc.109>:
     3be:	ce 01       	movw	r24, r28
     3c0:	01 96       	adiw	r24, 0x01	; 1
     3c2:	0e 94 de 0c 	call	0x19bc	; 0x19bc <eeprom_read_byte>

000003c6 <.LVL13>:
     3c6:	91 2f       	mov	r25, r17

000003c8 <.Loc.111>:
     3c8:	f7 01       	movw	r30, r14
     3ca:	81 93       	st	Z+, r24
     3cc:	91 93       	st	Z+, r25
     3ce:	7f 01       	movw	r14, r30

000003d0 <.Loc.112>:
        kilo_irhigh[i]=(eeprom_read_byte(EEPROM_IRHIGH + i*2) <<8) | eeprom_read_byte(EEPROM_IRHIGH + i*2+1);
     3d0:	ce 01       	movw	r24, r28
     3d2:	c0 96       	adiw	r24, 0x30	; 48
     3d4:	0e 94 de 0c 	call	0x19bc	; 0x19bc <eeprom_read_byte>

000003d8 <.LVL14>:
     3d8:	18 2f       	mov	r17, r24

000003da <.Loc.114>:
     3da:	ce 01       	movw	r24, r28
     3dc:	c1 96       	adiw	r24, 0x31	; 49
     3de:	0e 94 de 0c 	call	0x19bc	; 0x19bc <eeprom_read_byte>

000003e2 <.LVL15>:
     3e2:	91 2f       	mov	r25, r17

000003e4 <.Loc.116>:
     3e4:	f6 01       	movw	r30, r12
     3e6:	81 93       	st	Z+, r24
     3e8:	91 93       	st	Z+, r25
     3ea:	6f 01       	movw	r12, r30

000003ec <.Loc.117>:
    for (i=0; i<14; i++) {
     3ec:	22 96       	adiw	r28, 0x02	; 2

000003ee <.Loc.119>:
     3ee:	cc 33       	cpi	r28, 0x3C	; 60
     3f0:	d1 05       	cpc	r29, r1
     3f2:	09 f7       	brne	.-62     	; 0x3b6 <.L8>

000003f4 <.Loc.120>:
    sei();
     3f4:	78 94       	sei

000003f6 <.Loc.121>:
}
     3f6:	df 91       	pop	r29
     3f8:	cf 91       	pop	r28
     3fa:	1f 91       	pop	r17
     3fc:	ff 90       	pop	r15
     3fe:	ef 90       	pop	r14
     400:	df 90       	pop	r13
     402:	cf 90       	pop	r12
     404:	08 95       	ret

00000406 <__vector_6>:

/**
 * Watchdog timer interrupt.
 * Used to wakeup from low power sleep mode.
 */
ISR(WDT_vect) {
     406:	0f 92       	push	r0
     408:	0f b6       	in	r0, 0x3f	; 63
     40a:	0f 92       	push	r0
     40c:	1f 92       	push	r1
     40e:	11 24       	eor	r1, r1
     410:	8f 93       	push	r24

00000412 <.LBB100>:
     412:	0f b6       	in	r0, 0x3f	; 63
     414:	f8 94       	cli
     416:	a8 95       	wdr
     418:	80 91 60 00 	lds	r24, 0x0060	; 0x800060 <__DATA_REGION_ORIGIN__>
     41c:	88 61       	ori	r24, 0x18	; 24
     41e:	80 93 60 00 	sts	0x0060, r24	; 0x800060 <__DATA_REGION_ORIGIN__>
     422:	10 92 60 00 	sts	0x0060, r1	; 0x800060 <__DATA_REGION_ORIGIN__>
     426:	0f be       	out	0x3f, r0	; 63

00000428 <.LBE100>:
    wdt_disable();
}
     428:	8f 91       	pop	r24
     42a:	1f 90       	pop	r1
     42c:	0f 90       	pop	r0
     42e:	0f be       	out	0x3f, r0	; 63
     430:	0f 90       	pop	r0
     432:	18 95       	reti

00000434 <delay>:
        default:
            break;
    }
}

void delay(uint16_t ms) {
     434:	9c 01       	movw	r18, r24

00000436 <.L20>:
    while (ms > 0) {
     436:	21 15       	cp	r18, r1
     438:	31 05       	cpc	r19, r1
     43a:	09 f4       	brne	.+2      	; 0x43e <.L21>

0000043c <.Loc.142>:
        _delay_ms(1);
        ms--;
    }
}
     43c:	08 95       	ret

0000043e <.L21>:
	#else
		//round up by default
		__ticks_dc = (uint32_t)(ceil(fabs(__tmp)));
	#endif

	__builtin_avr_delay_cycles(__ticks_dc);
     43e:	8f ec       	ldi	r24, 0xCF	; 207
     440:	97 e0       	ldi	r25, 0x07	; 7

00000442 <.L1^B1>:
     442:	01 97       	sbiw	r24, 0x01	; 1
     444:	f1 f7       	brne	.-4      	; 0x442 <.L1^B1>
     446:	00 c0       	rjmp	.+0      	; 0x448 <L0^A>

00000448 <L0^A>:
	...

0000044a <.LBE105>:
        ms--;
     44a:	21 50       	subi	r18, 0x01	; 1
     44c:	31 09       	sbc	r19, r1

0000044e <.Loc.156>:
     44e:	f3 cf       	rjmp	.-26     	; 0x436 <.L20>

00000450 <set_motors>:

void set_motors(uint8_t ccw, uint8_t cw) {
    OCR2A = ccw;
     450:	80 93 b3 00 	sts	0x00B3, r24	; 0x8000b3 <__DATA_REGION_ORIGIN__+0x53>

00000454 <.Loc.160>:
    OCR2B = cw;
     454:	60 93 b4 00 	sts	0x00B4, r22	; 0x8000b4 <__DATA_REGION_ORIGIN__+0x54>

00000458 <.Loc.162>:
}
     458:	08 95       	ret

0000045a <spinup_motors>:
    OCR2A = ccw;
     45a:	8f ef       	ldi	r24, 0xFF	; 255
     45c:	80 93 b3 00 	sts	0x00B3, r24	; 0x8000b3 <__DATA_REGION_ORIGIN__+0x53>

00000460 <.Loc.168>:
    OCR2B = cw;
     460:	80 93 b4 00 	sts	0x00B4, r24	; 0x8000b4 <__DATA_REGION_ORIGIN__+0x54>

00000464 <.LBE106>:

void spinup_motors() {
    set_motors(255, 255);
    delay(15);
     464:	8f e0       	ldi	r24, 0x0F	; 15
     466:	90 e0       	ldi	r25, 0x00	; 0
     468:	0c 94 1a 02 	jmp	0x434	; 0x434 <delay>

0000046c <get_ambientlight>:
}

int16_t get_ambientlight() {
    int16_t light = -1;
    if (!rx_busy) {
     46c:	80 91 51 01 	lds	r24, 0x0151	; 0x800151 <rx_busy>

00000470 <.Loc.176>:
     470:	81 11       	cpse	r24, r1
     472:	1e c0       	rjmp	.+60     	; 0x4b0 <.L27>

00000474 <.Loc.177>:
        cli();
     474:	f8 94       	cli

00000476 <.Loc.178>:
        adc_setup_conversion(7);
     476:	87 e0       	ldi	r24, 0x07	; 7
     478:	80 93 7c 00 	sts	0x007C, r24	; 0x80007c <__DATA_REGION_ORIGIN__+0x1c>

0000047c <.Loc.179>:
     47c:	83 e8       	ldi	r24, 0x83	; 131
     47e:	80 93 7a 00 	sts	0x007A, r24	; 0x80007a <__DATA_REGION_ORIGIN__+0x1a>

00000482 <.Loc.180>:
        adc_start_conversion();
     482:	80 91 7a 00 	lds	r24, 0x007A	; 0x80007a <__DATA_REGION_ORIGIN__+0x1a>
     486:	80 64       	ori	r24, 0x40	; 64
     488:	80 93 7a 00 	sts	0x007A, r24	; 0x80007a <__DATA_REGION_ORIGIN__+0x1a>

0000048c <.L26>:
        adc_finish_conversion();
     48c:	80 91 7a 00 	lds	r24, 0x007A	; 0x80007a <__DATA_REGION_ORIGIN__+0x1a>
     490:	86 fd       	sbrc	r24, 6
     492:	fc cf       	rjmp	.-8      	; 0x48c <.L26>

00000494 <.Loc.185>:
        light = ADCW;                             // store AD result
     494:	80 91 78 00 	lds	r24, 0x0078	; 0x800078 <__DATA_REGION_ORIGIN__+0x18>
     498:	90 91 79 00 	lds	r25, 0x0079	; 0x800079 <__DATA_REGION_ORIGIN__+0x19>

0000049c <.LVL26>:
        adc_trigger_high_gain();                     // set AD to measure high gain (for distance sensing)
     49c:	10 92 7c 00 	sts	0x007C, r1	; 0x80007c <__DATA_REGION_ORIGIN__+0x1c>

000004a0 <.Loc.188>:
     4a0:	23 ea       	ldi	r18, 0xA3	; 163
     4a2:	20 93 7a 00 	sts	0x007A, r18	; 0x80007a <__DATA_REGION_ORIGIN__+0x1a>

000004a6 <.Loc.189>:
     4a6:	21 e0       	ldi	r18, 0x01	; 1
     4a8:	20 93 7b 00 	sts	0x007B, r18	; 0x80007b <__DATA_REGION_ORIGIN__+0x1b>

000004ac <.Loc.190>:
        sei();                                    // reenable interrupts
     4ac:	78 94       	sei
     4ae:	08 95       	ret

000004b0 <.L27>:
    int16_t light = -1;
     4b0:	8f ef       	ldi	r24, 0xFF	; 255
     4b2:	9f ef       	ldi	r25, 0xFF	; 255

000004b4 <.Loc.193>:
    }
    return light;
}
     4b4:	08 95       	ret

000004b6 <get_temperature>:

int16_t get_temperature() {
    int16_t temp = -1;
    if (!rx_busy) {
     4b6:	80 91 51 01 	lds	r24, 0x0151	; 0x800151 <rx_busy>

000004ba <.Loc.199>:
     4ba:	81 11       	cpse	r24, r1
     4bc:	1e c0       	rjmp	.+60     	; 0x4fa <.L32>

000004be <.Loc.200>:
        cli();
     4be:	f8 94       	cli

000004c0 <.Loc.201>:
        ADMUX = (1<<3)|(1<<6)|(1<<7);
     4c0:	88 ec       	ldi	r24, 0xC8	; 200
     4c2:	80 93 7c 00 	sts	0x007C, r24	; 0x80007c <__DATA_REGION_ORIGIN__+0x1c>

000004c6 <.Loc.203>:
        ADCSRA = (1<<ADEN)|(1<<ADPS2)|(1<<ADPS1)|(1<<ADPS0);
     4c6:	87 e8       	ldi	r24, 0x87	; 135
     4c8:	80 93 7a 00 	sts	0x007A, r24	; 0x80007a <__DATA_REGION_ORIGIN__+0x1a>

000004cc <.Loc.205>:
        adc_start_conversion();
     4cc:	80 91 7a 00 	lds	r24, 0x007A	; 0x80007a <__DATA_REGION_ORIGIN__+0x1a>
     4d0:	80 64       	ori	r24, 0x40	; 64
     4d2:	80 93 7a 00 	sts	0x007A, r24	; 0x80007a <__DATA_REGION_ORIGIN__+0x1a>

000004d6 <.L31>:
        adc_finish_conversion();
     4d6:	80 91 7a 00 	lds	r24, 0x007A	; 0x80007a <__DATA_REGION_ORIGIN__+0x1a>
     4da:	86 fd       	sbrc	r24, 6
     4dc:	fc cf       	rjmp	.-8      	; 0x4d6 <.L31>

000004de <.Loc.209>:
        temp = ADCW;                             // store AD result
     4de:	80 91 78 00 	lds	r24, 0x0078	; 0x800078 <__DATA_REGION_ORIGIN__+0x18>
     4e2:	90 91 79 00 	lds	r25, 0x0079	; 0x800079 <__DATA_REGION_ORIGIN__+0x19>

000004e6 <.LVL29>:
        adc_trigger_high_gain();                     // set AD to measure high gain (for distance sensing)
     4e6:	10 92 7c 00 	sts	0x007C, r1	; 0x80007c <__DATA_REGION_ORIGIN__+0x1c>

000004ea <.Loc.212>:
     4ea:	23 ea       	ldi	r18, 0xA3	; 163
     4ec:	20 93 7a 00 	sts	0x007A, r18	; 0x80007a <__DATA_REGION_ORIGIN__+0x1a>

000004f0 <.Loc.213>:
     4f0:	21 e0       	ldi	r18, 0x01	; 1
     4f2:	20 93 7b 00 	sts	0x007B, r18	; 0x80007b <__DATA_REGION_ORIGIN__+0x1b>

000004f6 <.Loc.214>:
        sei();                                    // reenable interrupts
     4f6:	78 94       	sei
     4f8:	08 95       	ret

000004fa <.L32>:
    int16_t temp = -1;
     4fa:	8f ef       	ldi	r24, 0xFF	; 255
     4fc:	9f ef       	ldi	r25, 0xFF	; 255

000004fe <.Loc.217>:
    }
    return temp;
}
     4fe:	08 95       	ret

00000500 <rand_hard>:

uint8_t rand_hard() {
     500:	cf 93       	push	r28

00000502 <.LCFI7>:
     502:	df 93       	push	r29

00000504 <.LCFI8>:
     504:	30 e0       	ldi	r19, 0x00	; 0
     506:	20 e0       	ldi	r18, 0x00	; 0

00000508 <.Loc.225>:
    uint8_t num = 0;
     508:	80 e0       	ldi	r24, 0x00	; 0

0000050a <.Loc.226>:
    uint8_t a, b, i, tries;
    for (i = 0; i < 8; i++) {
        tries = 0;
        do {
            cli();
            adc_setup_conversion(6);
     50a:	e6 e0       	ldi	r30, 0x06	; 6
     50c:	f3 e8       	ldi	r31, 0x83	; 131

0000050e <.Loc.227>:
            adc_finish_conversion();
            a = ADCW&0x1;
            adc_start_conversion();
            adc_finish_conversion();
            b = ADCW&0x1;
            adc_trigger_high_gain();
     50e:	c3 ea       	ldi	r28, 0xA3	; 163
     510:	d1 e0       	ldi	r29, 0x01	; 1

00000512 <.Loc.228>:
            sei();
            tries++;
        } while (a == b && tries < 128);
        if (a)
            num |= (1<<i);
     512:	a1 e0       	ldi	r26, 0x01	; 1
     514:	b0 e0       	ldi	r27, 0x00	; 0

00000516 <.L40>:
    uint8_t num = 0;
     516:	90 e8       	ldi	r25, 0x80	; 128

00000518 <.L38>:
            cli();
     518:	f8 94       	cli

0000051a <.Loc.232>:
            adc_setup_conversion(6);
     51a:	e0 93 7c 00 	sts	0x007C, r30	; 0x80007c <__DATA_REGION_ORIGIN__+0x1c>

0000051e <.Loc.233>:
     51e:	f0 93 7a 00 	sts	0x007A, r31	; 0x80007a <__DATA_REGION_ORIGIN__+0x1a>

00000522 <.Loc.234>:
            adc_start_conversion();
     522:	40 91 7a 00 	lds	r20, 0x007A	; 0x80007a <__DATA_REGION_ORIGIN__+0x1a>
     526:	40 64       	ori	r20, 0x40	; 64
     528:	40 93 7a 00 	sts	0x007A, r20	; 0x80007a <__DATA_REGION_ORIGIN__+0x1a>

0000052c <.L35>:
            adc_finish_conversion();
     52c:	40 91 7a 00 	lds	r20, 0x007A	; 0x80007a <__DATA_REGION_ORIGIN__+0x1a>
     530:	46 fd       	sbrc	r20, 6
     532:	fc cf       	rjmp	.-8      	; 0x52c <.L35>

00000534 <.Loc.239>:
            a = ADCW&0x1;
     534:	40 91 78 00 	lds	r20, 0x0078	; 0x800078 <__DATA_REGION_ORIGIN__+0x18>
     538:	50 91 79 00 	lds	r21, 0x0079	; 0x800079 <__DATA_REGION_ORIGIN__+0x19>

0000053c <.Loc.241>:
     53c:	41 70       	andi	r20, 0x01	; 1

0000053e <.LVL34>:
            adc_start_conversion();
     53e:	50 91 7a 00 	lds	r21, 0x007A	; 0x80007a <__DATA_REGION_ORIGIN__+0x1a>
     542:	50 64       	ori	r21, 0x40	; 64
     544:	50 93 7a 00 	sts	0x007A, r21	; 0x80007a <__DATA_REGION_ORIGIN__+0x1a>

00000548 <.L36>:
            adc_finish_conversion();
     548:	50 91 7a 00 	lds	r21, 0x007A	; 0x80007a <__DATA_REGION_ORIGIN__+0x1a>
     54c:	56 fd       	sbrc	r21, 6
     54e:	fc cf       	rjmp	.-8      	; 0x548 <.L36>

00000550 <.Loc.246>:
            b = ADCW&0x1;
     550:	60 91 78 00 	lds	r22, 0x0078	; 0x800078 <__DATA_REGION_ORIGIN__+0x18>
     554:	70 91 79 00 	lds	r23, 0x0079	; 0x800079 <__DATA_REGION_ORIGIN__+0x19>

00000558 <.LVL35>:
            adc_trigger_high_gain();
     558:	10 92 7c 00 	sts	0x007C, r1	; 0x80007c <__DATA_REGION_ORIGIN__+0x1c>

0000055c <.Loc.249>:
     55c:	c0 93 7a 00 	sts	0x007A, r28	; 0x80007a <__DATA_REGION_ORIGIN__+0x1a>

00000560 <.Loc.250>:
     560:	d0 93 7b 00 	sts	0x007B, r29	; 0x80007b <__DATA_REGION_ORIGIN__+0x1b>

00000564 <.Loc.251>:
            sei();
     564:	78 94       	sei

00000566 <.LVL36>:
            b = ADCW&0x1;
     566:	61 70       	andi	r22, 0x01	; 1

00000568 <.LVL37>:
        } while (a == b && tries < 128);
     568:	46 13       	cpse	r20, r22
     56a:	02 c0       	rjmp	.+4      	; 0x570 <.L37>
     56c:	91 50       	subi	r25, 0x01	; 1

0000056e <.LVL38>:
     56e:	a1 f6       	brne	.-88     	; 0x518 <.L38>

00000570 <.L37>:
        if (a)
     570:	44 23       	and	r20, r20
     572:	39 f0       	breq	.+14     	; 0x582 <.L39>

00000574 <.Loc.260>:
            num |= (1<<i);
     574:	ad 01       	movw	r20, r26

00000576 <.LVL40>:
     576:	02 2e       	mov	r0, r18
     578:	01 c0       	rjmp	.+2      	; 0x57c <.L2^B1>

0000057a <.L1^B2>:
     57a:	44 0f       	add	r20, r20

0000057c <.L2^B1>:
     57c:	0a 94       	dec	r0
     57e:	ea f7       	brpl	.-6      	; 0x57a <.L1^B2>

00000580 <.Loc.263>:
     580:	84 2b       	or	r24, r20

00000582 <.L39>:
    for (i = 0; i < 8; i++) {
     582:	2f 5f       	subi	r18, 0xFF	; 255
     584:	3f 4f       	sbci	r19, 0xFF	; 255

00000586 <.LVL42>:
     586:	28 30       	cpi	r18, 0x08	; 8
     588:	31 05       	cpc	r19, r1
     58a:	29 f6       	brne	.-118    	; 0x516 <.L40>

0000058c <.Loc.267>:
    }
    return num;
}
     58c:	df 91       	pop	r29
     58e:	cf 91       	pop	r28
     590:	08 95       	ret

00000592 <rand_soft>:

static uint8_t seed=0xaa, accumulator = 0;

uint8_t rand_soft() {
    seed ^= seed<<3;
     592:	80 91 03 01 	lds	r24, 0x0103	; 0x800103 <seed>
     596:	98 e0       	ldi	r25, 0x08	; 8
     598:	89 9f       	mul	r24, r25
     59a:	90 01       	movw	r18, r0
     59c:	11 24       	eor	r1, r1

0000059e <.Loc.271>:
     59e:	98 2f       	mov	r25, r24
     5a0:	92 27       	eor	r25, r18

000005a2 <.Loc.272>:
    seed ^= seed>>5;
    seed ^= accumulator++>>2;
     5a2:	20 91 13 01 	lds	r18, 0x0113	; 0x800113 <accumulator>
     5a6:	81 e0       	ldi	r24, 0x01	; 1
     5a8:	82 0f       	add	r24, r18
     5aa:	80 93 13 01 	sts	0x0113, r24	; 0x800113 <accumulator>

000005ae <.Loc.275>:
    seed ^= seed>>5;
     5ae:	89 2f       	mov	r24, r25
     5b0:	82 95       	swap	r24
     5b2:	86 95       	lsr	r24
     5b4:	87 70       	andi	r24, 0x07	; 7
     5b6:	89 27       	eor	r24, r25

000005b8 <.Loc.276>:
    seed ^= accumulator++>>2;
     5b8:	26 95       	lsr	r18
     5ba:	26 95       	lsr	r18

000005bc <.Loc.277>:
     5bc:	82 27       	eor	r24, r18
     5be:	80 93 03 01 	sts	0x0103, r24	; 0x800103 <seed>

000005c2 <.Loc.278>:
    return seed;
}
     5c2:	08 95       	ret

000005c4 <rand_seed>:

void rand_seed(uint8_t s) {
    seed = s;
     5c4:	80 93 03 01 	sts	0x0103, r24	; 0x800103 <seed>

000005c8 <.Loc.283>:
}
     5c8:	08 95       	ret

000005ca <get_voltage>:

int16_t get_voltage() {
    int16_t voltage=-1;
    if (!rx_busy) {
     5ca:	80 91 51 01 	lds	r24, 0x0151	; 0x800151 <rx_busy>

000005ce <.Loc.288>:
     5ce:	81 11       	cpse	r24, r1
     5d0:	16 c0       	rjmp	.+44     	; 0x5fe <.L53>

000005d2 <.Loc.289>:
        cli();                                    // disable interrupts
     5d2:	f8 94       	cli

000005d4 <.Loc.290>:
        adc_setup_conversion(6);
     5d4:	86 e0       	ldi	r24, 0x06	; 6
     5d6:	80 93 7c 00 	sts	0x007C, r24	; 0x80007c <__DATA_REGION_ORIGIN__+0x1c>

000005da <.Loc.291>:
     5da:	83 e8       	ldi	r24, 0x83	; 131
     5dc:	80 93 7a 00 	sts	0x007A, r24	; 0x80007a <__DATA_REGION_ORIGIN__+0x1a>

000005e0 <.Loc.292>:
        adc_start_conversion();
     5e0:	80 91 7a 00 	lds	r24, 0x007A	; 0x80007a <__DATA_REGION_ORIGIN__+0x1a>
     5e4:	80 64       	ori	r24, 0x40	; 64
     5e6:	80 93 7a 00 	sts	0x007A, r24	; 0x80007a <__DATA_REGION_ORIGIN__+0x1a>

000005ea <.L52>:
        adc_finish_conversion();
     5ea:	80 91 7a 00 	lds	r24, 0x007A	; 0x80007a <__DATA_REGION_ORIGIN__+0x1a>
     5ee:	86 fd       	sbrc	r24, 6
     5f0:	fc cf       	rjmp	.-8      	; 0x5ea <.L52>

000005f2 <.Loc.298>:
        voltage = ADCW;                           // store AD result
     5f2:	80 91 78 00 	lds	r24, 0x0078	; 0x800078 <__DATA_REGION_ORIGIN__+0x18>
     5f6:	90 91 79 00 	lds	r25, 0x0079	; 0x800079 <__DATA_REGION_ORIGIN__+0x19>

000005fa <.LVL45>:
//        adc_trigger_high_gain();                     // set AD to measure high gain (for distance sensing)
        sei();                                    // reenable interrupts
     5fa:	78 94       	sei

000005fc <.LVL46>:
    }
    return voltage;
     5fc:	08 95       	ret

000005fe <.L53>:
    int16_t voltage=-1;
     5fe:	8f ef       	ldi	r24, 0xFF	; 255
     600:	9f ef       	ldi	r25, 0xFF	; 255

00000602 <.Loc.304>:
}
     602:	08 95       	ret

00000604 <estimate_distance>:

uint8_t estimate_distance(const distance_measurement_t *dist) {
     604:	3f 92       	push	r3

00000606 <.LCFI9>:
     606:	4f 92       	push	r4

00000608 <.LCFI10>:
     608:	5f 92       	push	r5

0000060a <.LCFI11>:
     60a:	6f 92       	push	r6

0000060c <.LCFI12>:
     60c:	7f 92       	push	r7

0000060e <.LCFI13>:
     60e:	8f 92       	push	r8

00000610 <.LCFI14>:
     610:	9f 92       	push	r9

00000612 <.LCFI15>:
     612:	af 92       	push	r10

00000614 <.LCFI16>:
     614:	bf 92       	push	r11

00000616 <.LCFI17>:
     616:	cf 92       	push	r12

00000618 <.LCFI18>:
     618:	df 92       	push	r13

0000061a <.LCFI19>:
     61a:	ef 92       	push	r14

0000061c <.LCFI20>:
     61c:	ff 92       	push	r15

0000061e <.LCFI21>:
     61e:	0f 93       	push	r16

00000620 <.LCFI22>:
     620:	1f 93       	push	r17

00000622 <.LCFI23>:
     622:	cf 93       	push	r28

00000624 <.LCFI24>:
     624:	df 93       	push	r29

00000626 <.LCFI25>:
     626:	00 d0       	rcall	.+0      	; 0x628 <L0^A>

00000628 <L0^A>:
     628:	00 d0       	rcall	.+0      	; 0x62a <L0^A>

0000062a <L0^A>:
     62a:	00 d0       	rcall	.+0      	; 0x62c <L0^A>

0000062c <L0^A>:
     62c:	0f 92       	push	r0

0000062e <.LCFI26>:
     62e:	cd b7       	in	r28, 0x3d	; 61
     630:	de b7       	in	r29, 0x3e	; 62

00000632 <.LCFI27>:
     632:	7c 01       	movw	r14, r24

00000634 <.LVL48>:
    uint8_t index_high=13;
    uint8_t index_low=255;
    uint8_t dist_high=255;
    uint8_t dist_low=255;

    if (dist->high_gain < 900) {
     634:	dc 01       	movw	r26, r24
     636:	12 96       	adiw	r26, 0x02	; 2
     638:	0d 91       	ld	r16, X+
     63a:	1c 91       	ld	r17, X

0000063c <.Loc.315>:
     63c:	04 38       	cpi	r16, 0x84	; 132
     63e:	b3 e0       	ldi	r27, 0x03	; 3
     640:	1b 07       	cpc	r17, r27
     642:	0c f0       	brlt	.+2      	; 0x646 <.Loc.316>

00000644 <L0^A>:
     644:	b6 c1       	rjmp	.+876    	; 0x9b2 <.L66>

00000646 <.Loc.316>:
        if (dist->high_gain > kilo_irhigh[0]) {
     646:	80 91 2b 01 	lds	r24, 0x012B	; 0x80012b <kilo_irhigh>
     64a:	90 91 2c 01 	lds	r25, 0x012C	; 0x80012c <kilo_irhigh+0x1>

0000064e <.LVL49>:
     64e:	80 17       	cp	r24, r16
     650:	91 07       	cpc	r25, r17
     652:	08 f4       	brcc	.+2      	; 0x656 <L0^A+0x2>

00000654 <L0^A>:
     654:	ac c1       	rjmp	.+856    	; 0x9ae <.L67>
     656:	ed e2       	ldi	r30, 0x2D	; 45
     658:	f1 e0       	ldi	r31, 0x01	; 1

0000065a <.LBB112>:
            dist_high=0;
        } else {
            for (i=1; i<14; i++) {
     65a:	21 e0       	ldi	r18, 0x01	; 1
     65c:	2d 83       	std	Y+5, r18	; 0x05

0000065e <.L59>:
                if (dist->high_gain > kilo_irhigh[i]) {
     65e:	81 91       	ld	r24, Z+
     660:	91 91       	ld	r25, Z+

00000662 <.Loc.322>:
     662:	80 17       	cp	r24, r16
     664:	91 07       	cpc	r25, r17
     666:	38 f0       	brcs	.+14     	; 0x676 <.L58>

00000668 <.Loc.323>:
            for (i=1; i<14; i++) {
     668:	3d 81       	ldd	r19, Y+5	; 0x05
     66a:	3f 5f       	subi	r19, 0xFF	; 255
     66c:	3d 83       	std	Y+5, r19	; 0x05

0000066e <.LVL51>:
     66e:	3e 30       	cpi	r19, 0x0E	; 14
     670:	b1 f7       	brne	.-20     	; 0x65e <.L59>

00000672 <.LBE112>:
    uint8_t index_high=13;
     672:	4d e0       	ldi	r20, 0x0D	; 13
     674:	4d 83       	std	Y+5, r20	; 0x05

00000676 <.L58>:
                    index_high = i;
                    break;
                }
            }

            double slope=(kilo_irhigh[index_high]-kilo_irhigh[index_high-1])/0.5;
     676:	5d 81       	ldd	r21, Y+5	; 0x05
     678:	85 2f       	mov	r24, r21
     67a:	90 e0       	ldi	r25, 0x00	; 0
     67c:	fc 01       	movw	r30, r24
     67e:	ee 0f       	add	r30, r30
     680:	ff 1f       	adc	r31, r31
     682:	e5 5d       	subi	r30, 0xD5	; 213
     684:	fe 4f       	sbci	r31, 0xFE	; 254
     686:	c0 80       	ld	r12, Z
     688:	d1 80       	ldd	r13, Z+1	; 0x01

0000068a <.Loc.330>:
     68a:	88 0f       	add	r24, r24
     68c:	99 1f       	adc	r25, r25
     68e:	fc 01       	movw	r30, r24
     690:	e7 5d       	subi	r30, 0xD7	; 215
     692:	fe 4f       	sbci	r31, 0xFE	; 254

00000694 <.Loc.331>:
     694:	80 81       	ld	r24, Z
     696:	91 81       	ldd	r25, Z+1	; 0x01
     698:	d6 01       	movw	r26, r12
     69a:	a8 1b       	sub	r26, r24
     69c:	b9 0b       	sbc	r27, r25

0000069e <.Loc.332>:
     69e:	9d 01       	movw	r18, r26
     6a0:	50 e0       	ldi	r21, 0x00	; 0
     6a2:	40 e0       	ldi	r20, 0x00	; 0
     6a4:	29 83       	std	Y+1, r18	; 0x01
     6a6:	3a 83       	std	Y+2, r19	; 0x02
     6a8:	4b 83       	std	Y+3, r20	; 0x03
     6aa:	5c 83       	std	Y+4, r21	; 0x04
     6ac:	ca 01       	movw	r24, r20
     6ae:	bd 01       	movw	r22, r26
     6b0:	0e 94 6b 0b 	call	0x16d6	; 0x16d6 <__floatunsisf>

000006b4 <.Loc.333>:
     6b4:	9b 01       	movw	r18, r22
     6b6:	ac 01       	movw	r20, r24
     6b8:	69 83       	std	Y+1, r22	; 0x01
     6ba:	7a 83       	std	Y+2, r23	; 0x02
     6bc:	8b 83       	std	Y+3, r24	; 0x03
     6be:	9c 83       	std	Y+4, r25	; 0x04
     6c0:	69 81       	ldd	r22, Y+1	; 0x01
     6c2:	7a 81       	ldd	r23, Y+2	; 0x02
     6c4:	8b 81       	ldd	r24, Y+3	; 0x03
     6c6:	9c 81       	ldd	r25, Y+4	; 0x04
     6c8:	0e 94 57 0a 	call	0x14ae	; 0x14ae <__addsf3>
     6cc:	4b 01       	movw	r8, r22
     6ce:	5c 01       	movw	r10, r24

000006d0 <.LVL55>:
            double b=(double)kilo_irhigh[index_high]-(double)slope*((double)index_high*(double)0.5+(double)0.0);
            b=(((((double)dist->high_gain-(double)b)*(double)10)));
     6d0:	c8 01       	movw	r24, r16
     6d2:	01 2e       	mov	r0, r17
     6d4:	00 0c       	add	r0, r0
     6d6:	aa 0b       	sbc	r26, r26
     6d8:	bb 0b       	sbc	r27, r27
     6da:	89 83       	std	Y+1, r24	; 0x01
     6dc:	9a 83       	std	Y+2, r25	; 0x02
     6de:	ab 83       	std	Y+3, r26	; 0x03
     6e0:	bc 83       	std	Y+4, r27	; 0x04
     6e2:	bc 01       	movw	r22, r24
     6e4:	cd 01       	movw	r24, r26
     6e6:	0e 94 6d 0b 	call	0x16da	; 0x16da <__floatsisf>
     6ea:	56 2e       	mov	r5, r22
     6ec:	67 2e       	mov	r6, r23
     6ee:	78 2e       	mov	r7, r24
     6f0:	9e 83       	std	Y+6, r25	; 0x06

000006f2 <.Loc.337>:
            double b=(double)kilo_irhigh[index_high]-(double)slope*((double)index_high*(double)0.5+(double)0.0);
     6f2:	96 01       	movw	r18, r12
     6f4:	50 e0       	ldi	r21, 0x00	; 0
     6f6:	40 e0       	ldi	r20, 0x00	; 0
     6f8:	29 83       	std	Y+1, r18	; 0x01
     6fa:	3a 83       	std	Y+2, r19	; 0x02
     6fc:	4b 83       	std	Y+3, r20	; 0x03
     6fe:	5c 83       	std	Y+4, r21	; 0x04
     700:	ca 01       	movw	r24, r20
     702:	b6 01       	movw	r22, r12
     704:	0e 94 6b 0b 	call	0x16d6	; 0x16d6 <__floatunsisf>
     708:	36 2e       	mov	r3, r22
     70a:	47 2e       	mov	r4, r23
     70c:	6c 01       	movw	r12, r24

0000070e <.Loc.338>:
     70e:	9d 81       	ldd	r25, Y+5	; 0x05
     710:	89 2f       	mov	r24, r25
     712:	90 e0       	ldi	r25, 0x00	; 0
     714:	b0 e0       	ldi	r27, 0x00	; 0
     716:	a0 e0       	ldi	r26, 0x00	; 0
     718:	89 83       	std	Y+1, r24	; 0x01
     71a:	9a 83       	std	Y+2, r25	; 0x02
     71c:	ab 83       	std	Y+3, r26	; 0x03
     71e:	bc 83       	std	Y+4, r27	; 0x04
     720:	bc 01       	movw	r22, r24
     722:	cd 01       	movw	r24, r26
     724:	0e 94 6b 0b 	call	0x16d6	; 0x16d6 <__floatunsisf>

00000728 <.Loc.339>:
     728:	20 e0       	ldi	r18, 0x00	; 0
     72a:	30 e0       	ldi	r19, 0x00	; 0
     72c:	40 e0       	ldi	r20, 0x00	; 0
     72e:	5f e3       	ldi	r21, 0x3F	; 63
     730:	69 83       	std	Y+1, r22	; 0x01
     732:	7a 83       	std	Y+2, r23	; 0x02
     734:	8b 83       	std	Y+3, r24	; 0x03
     736:	9c 83       	std	Y+4, r25	; 0x04
     738:	69 81       	ldd	r22, Y+1	; 0x01
     73a:	7a 81       	ldd	r23, Y+2	; 0x02
     73c:	8b 81       	ldd	r24, Y+3	; 0x03
     73e:	9c 81       	ldd	r25, Y+4	; 0x04
     740:	0e 94 f9 0b 	call	0x17f2	; 0x17f2 <__mulsf3>

00000744 <.Loc.340>:
     744:	20 e0       	ldi	r18, 0x00	; 0
     746:	30 e0       	ldi	r19, 0x00	; 0
     748:	a9 01       	movw	r20, r18
     74a:	69 83       	std	Y+1, r22	; 0x01
     74c:	7a 83       	std	Y+2, r23	; 0x02
     74e:	8b 83       	std	Y+3, r24	; 0x03
     750:	9c 83       	std	Y+4, r25	; 0x04
     752:	69 81       	ldd	r22, Y+1	; 0x01
     754:	7a 81       	ldd	r23, Y+2	; 0x02
     756:	8b 81       	ldd	r24, Y+3	; 0x03
     758:	9c 81       	ldd	r25, Y+4	; 0x04
     75a:	0e 94 57 0a 	call	0x14ae	; 0x14ae <__addsf3>

0000075e <.Loc.341>:
     75e:	94 01       	movw	r18, r8
     760:	a5 01       	movw	r20, r10
     762:	69 83       	std	Y+1, r22	; 0x01
     764:	7a 83       	std	Y+2, r23	; 0x02
     766:	8b 83       	std	Y+3, r24	; 0x03
     768:	9c 83       	std	Y+4, r25	; 0x04
     76a:	69 81       	ldd	r22, Y+1	; 0x01
     76c:	7a 81       	ldd	r23, Y+2	; 0x02
     76e:	8b 81       	ldd	r24, Y+3	; 0x03
     770:	9c 81       	ldd	r25, Y+4	; 0x04
     772:	0e 94 f9 0b 	call	0x17f2	; 0x17f2 <__mulsf3>

00000776 <.Loc.342>:
     776:	9b 01       	movw	r18, r22
     778:	ac 01       	movw	r20, r24
     77a:	39 82       	std	Y+1, r3	; 0x01
     77c:	4a 82       	std	Y+2, r4	; 0x02
     77e:	cb 82       	std	Y+3, r12	; 0x03
     780:	dc 82       	std	Y+4, r13	; 0x04
     782:	69 81       	ldd	r22, Y+1	; 0x01
     784:	7a 81       	ldd	r23, Y+2	; 0x02
     786:	8b 81       	ldd	r24, Y+3	; 0x03
     788:	9c 81       	ldd	r25, Y+4	; 0x04
     78a:	0e 94 56 0a 	call	0x14ac	; 0x14ac <__subsf3>

0000078e <.Loc.343>:
            b=(((((double)dist->high_gain-(double)b)*(double)10)));
     78e:	9b 01       	movw	r18, r22
     790:	ac 01       	movw	r20, r24
     792:	59 82       	std	Y+1, r5	; 0x01
     794:	6a 82       	std	Y+2, r6	; 0x02
     796:	7b 82       	std	Y+3, r7	; 0x03
     798:	ae 81       	ldd	r26, Y+6	; 0x06
     79a:	ac 83       	std	Y+4, r26	; 0x04
     79c:	69 81       	ldd	r22, Y+1	; 0x01
     79e:	7a 81       	ldd	r23, Y+2	; 0x02
     7a0:	8b 81       	ldd	r24, Y+3	; 0x03
     7a2:	9c 81       	ldd	r25, Y+4	; 0x04
     7a4:	0e 94 56 0a 	call	0x14ac	; 0x14ac <__subsf3>

000007a8 <.Loc.344>:
     7a8:	20 e0       	ldi	r18, 0x00	; 0
     7aa:	30 e0       	ldi	r19, 0x00	; 0
     7ac:	40 e2       	ldi	r20, 0x20	; 32
     7ae:	51 e4       	ldi	r21, 0x41	; 65
     7b0:	69 83       	std	Y+1, r22	; 0x01
     7b2:	7a 83       	std	Y+2, r23	; 0x02
     7b4:	8b 83       	std	Y+3, r24	; 0x03
     7b6:	9c 83       	std	Y+4, r25	; 0x04
     7b8:	69 81       	ldd	r22, Y+1	; 0x01
     7ba:	7a 81       	ldd	r23, Y+2	; 0x02
     7bc:	8b 81       	ldd	r24, Y+3	; 0x03
     7be:	9c 81       	ldd	r25, Y+4	; 0x04

000007c0 <.Loc.347>:
     7c0:	0e 94 f9 0b 	call	0x17f2	; 0x17f2 <__mulsf3>

000007c4 <.Loc.348>:
            b=((int)((int)b/(int)slope));
     7c4:	69 83       	std	Y+1, r22	; 0x01

000007c6 <.Loc.349>:
     7c6:	7a 83       	std	Y+2, r23	; 0x02
     7c8:	8b 83       	std	Y+3, r24	; 0x03
     7ca:	9c 83       	std	Y+4, r25	; 0x04
     7cc:	69 81       	ldd	r22, Y+1	; 0x01
     7ce:	7a 81       	ldd	r23, Y+2	; 0x02
     7d0:	8b 81       	ldd	r24, Y+3	; 0x03
     7d2:	9c 81       	ldd	r25, Y+4	; 0x04
     7d4:	0e 94 35 0b 	call	0x166a	; 0x166a <__fixsfsi>
     7d8:	6e 83       	std	Y+6, r22	; 0x06
     7da:	7f 83       	std	Y+7, r23	; 0x07

000007dc <.Loc.350>:
     7dc:	89 82       	std	Y+1, r8	; 0x01
     7de:	9a 82       	std	Y+2, r9	; 0x02
     7e0:	ab 82       	std	Y+3, r10	; 0x03
     7e2:	bc 82       	std	Y+4, r11	; 0x04
     7e4:	69 81       	ldd	r22, Y+1	; 0x01
     7e6:	7a 81       	ldd	r23, Y+2	; 0x02
     7e8:	8b 81       	ldd	r24, Y+3	; 0x03
     7ea:	9c 81       	ldd	r25, Y+4	; 0x04
     7ec:	0e 94 35 0b 	call	0x166a	; 0x166a <__fixsfsi>
     7f0:	69 83       	std	Y+1, r22	; 0x01
     7f2:	7a 83       	std	Y+2, r23	; 0x02
     7f4:	8b 83       	std	Y+3, r24	; 0x03
     7f6:	9c 83       	std	Y+4, r25	; 0x04

000007f8 <.Loc.351>:
     7f8:	8e 81       	ldd	r24, Y+6	; 0x06
     7fa:	9f 81       	ldd	r25, Y+7	; 0x07
     7fc:	69 81       	ldd	r22, Y+1	; 0x01
     7fe:	7a 81       	ldd	r23, Y+2	; 0x02
     800:	0e 94 19 0a 	call	0x1432	; 0x1432 <__divmodhi4>

00000804 <.Loc.352>:
            dist_high=b;
     804:	6d 83       	std	Y+5, r22	; 0x05

00000806 <.L57>:
        }
    }

    if (dist->high_gain > 700) {
     806:	0d 3b       	cpi	r16, 0xBD	; 189
     808:	b2 e0       	ldi	r27, 0x02	; 2
     80a:	1b 07       	cpc	r17, r27
     80c:	0c f4       	brge	.+2      	; 0x810 <.L56>

0000080e <L0^A>:
     80e:	97 c1       	rjmp	.+814    	; 0xb3e <.L60>

00000810 <.L56>:
        if (dist->low_gain > kilo_irlow[0]) {
     810:	d7 01       	movw	r26, r14
     812:	cd 90       	ld	r12, X+
     814:	dc 90       	ld	r13, X

00000816 <.Loc.358>:
     816:	80 91 52 01 	lds	r24, 0x0152	; 0x800152 <kilo_irlow>
     81a:	90 91 53 01 	lds	r25, 0x0153	; 0x800153 <kilo_irlow+0x1>
     81e:	8c 15       	cp	r24, r12
     820:	9d 05       	cpc	r25, r13
     822:	08 f4       	brcc	.+2      	; 0x826 <.Loc.359>

00000824 <L0^A>:
     824:	c9 c0       	rjmp	.+402    	; 0x9b8 <.L68>

00000826 <.Loc.359>:
     826:	e4 e5       	ldi	r30, 0x54	; 84
     828:	f1 e0       	ldi	r31, 0x01	; 1
     82a:	81 e0       	ldi	r24, 0x01	; 1
     82c:	90 e0       	ldi	r25, 0x00	; 0

0000082e <.L63>:
     82e:	88 2e       	mov	r8, r24

00000830 <.LVL73>:
            dist_low=0;
        } else {
            for(i=1; i<14; i++) {
                if(dist->low_gain > kilo_irlow[i]) {
     830:	e1 90       	ld	r14, Z+
     832:	f1 90       	ld	r15, Z+

00000834 <.Loc.363>:
     834:	ec 14       	cp	r14, r12
     836:	fd 04       	cpc	r15, r13
     838:	08 f4       	brcc	.+2      	; 0x83c <.LVL74>

0000083a <L0^A>:
     83a:	c3 c0       	rjmp	.+390    	; 0x9c2 <.L62>

0000083c <.LVL74>:
            for(i=1; i<14; i++) {
     83c:	01 96       	adiw	r24, 0x01	; 1

0000083e <.LVL75>:
     83e:	8e 30       	cpi	r24, 0x0E	; 14
     840:	91 05       	cpc	r25, r1
     842:	a9 f7       	brne	.-22     	; 0x82e <.L63>

00000844 <.Loc.367>:
                    break;
                }
            }

            if(index_low == 255) {
                dist_low=90;
     844:	ba e5       	ldi	r27, 0x5A	; 90
     846:	be 83       	std	Y+6, r27	; 0x06

00000848 <.L61>:
            }
        }
    }

    if (dist_low != 255) {
        if (dist_high != 255) {
     848:	ed 81       	ldd	r30, Y+5	; 0x05
     84a:	ef 3f       	cpi	r30, 0xFF	; 255
     84c:	09 f4       	brne	.+2      	; 0x850 <.Loc.370>

0000084e <L0^A>:
     84e:	b6 c0       	rjmp	.+364    	; 0x9bc <.L64>

00000850 <.Loc.370>:
            return 33 + ((double)dist_high*(900.0-dist->high_gain)+(double)dist_low*(dist->high_gain-700.0))/200.0;
     850:	98 01       	movw	r18, r16
     852:	11 0f       	add	r17, r17
     854:	44 0b       	sbc	r20, r20
     856:	55 0b       	sbc	r21, r21
     858:	29 83       	std	Y+1, r18	; 0x01
     85a:	3a 83       	std	Y+2, r19	; 0x02
     85c:	4b 83       	std	Y+3, r20	; 0x03
     85e:	5c 83       	std	Y+4, r21	; 0x04
     860:	ca 01       	movw	r24, r20
     862:	b9 01       	movw	r22, r18
     864:	0e 94 6d 0b 	call	0x16da	; 0x16da <__floatsisf>
     868:	7b 01       	movw	r14, r22
     86a:	8c 01       	movw	r16, r24

0000086c <.Loc.372>:
     86c:	9d 81       	ldd	r25, Y+5	; 0x05
     86e:	89 2f       	mov	r24, r25
     870:	90 e0       	ldi	r25, 0x00	; 0
     872:	b0 e0       	ldi	r27, 0x00	; 0
     874:	a0 e0       	ldi	r26, 0x00	; 0
     876:	89 83       	std	Y+1, r24	; 0x01
     878:	9a 83       	std	Y+2, r25	; 0x02
     87a:	ab 83       	std	Y+3, r26	; 0x03
     87c:	bc 83       	std	Y+4, r27	; 0x04
     87e:	bc 01       	movw	r22, r24
     880:	cd 01       	movw	r24, r26
     882:	0e 94 6b 0b 	call	0x16d6	; 0x16d6 <__floatunsisf>
     886:	b6 2e       	mov	r11, r22
     888:	c7 2e       	mov	r12, r23
     88a:	d8 2e       	mov	r13, r24
     88c:	9d 83       	std	Y+5, r25	; 0x05

0000088e <.LVL79>:
     88e:	97 01       	movw	r18, r14
     890:	a8 01       	movw	r20, r16
     892:	60 e0       	ldi	r22, 0x00	; 0
     894:	70 e0       	ldi	r23, 0x00	; 0
     896:	81 e6       	ldi	r24, 0x61	; 97
     898:	94 e4       	ldi	r25, 0x44	; 68
     89a:	0e 94 56 0a 	call	0x14ac	; 0x14ac <__subsf3>

0000089e <.Loc.374>:
     89e:	9b 01       	movw	r18, r22
     8a0:	ac 01       	movw	r20, r24
     8a2:	b9 82       	std	Y+1, r11	; 0x01
     8a4:	ca 82       	std	Y+2, r12	; 0x02
     8a6:	db 82       	std	Y+3, r13	; 0x03
     8a8:	ad 81       	ldd	r26, Y+5	; 0x05
     8aa:	ac 83       	std	Y+4, r26	; 0x04
     8ac:	69 81       	ldd	r22, Y+1	; 0x01
     8ae:	7a 81       	ldd	r23, Y+2	; 0x02
     8b0:	8b 81       	ldd	r24, Y+3	; 0x03
     8b2:	9c 81       	ldd	r25, Y+4	; 0x04
     8b4:	0e 94 f9 0b 	call	0x17f2	; 0x17f2 <__mulsf3>
     8b8:	b6 2e       	mov	r11, r22
     8ba:	c7 2e       	mov	r12, r23
     8bc:	d8 2e       	mov	r13, r24
     8be:	9d 83       	std	Y+5, r25	; 0x05

000008c0 <.Loc.375>:
     8c0:	3e 81       	ldd	r19, Y+6	; 0x06
     8c2:	23 2f       	mov	r18, r19
     8c4:	30 e0       	ldi	r19, 0x00	; 0
     8c6:	50 e0       	ldi	r21, 0x00	; 0
     8c8:	40 e0       	ldi	r20, 0x00	; 0
     8ca:	29 83       	std	Y+1, r18	; 0x01
     8cc:	3a 83       	std	Y+2, r19	; 0x02
     8ce:	4b 83       	std	Y+3, r20	; 0x03
     8d0:	5c 83       	std	Y+4, r21	; 0x04
     8d2:	ca 01       	movw	r24, r20
     8d4:	b9 01       	movw	r22, r18
     8d6:	0e 94 6b 0b 	call	0x16d6	; 0x16d6 <__floatunsisf>
     8da:	4b 01       	movw	r8, r22
     8dc:	a8 2e       	mov	r10, r24
     8de:	9e 83       	std	Y+6, r25	; 0x06

000008e0 <.Loc.376>:
     8e0:	20 e0       	ldi	r18, 0x00	; 0
     8e2:	30 e0       	ldi	r19, 0x00	; 0
     8e4:	4f e2       	ldi	r20, 0x2F	; 47
     8e6:	54 e4       	ldi	r21, 0x44	; 68
     8e8:	e9 82       	std	Y+1, r14	; 0x01
     8ea:	fa 82       	std	Y+2, r15	; 0x02
     8ec:	0b 83       	std	Y+3, r16	; 0x03
     8ee:	1c 83       	std	Y+4, r17	; 0x04
     8f0:	69 81       	ldd	r22, Y+1	; 0x01
     8f2:	7a 81       	ldd	r23, Y+2	; 0x02
     8f4:	8b 81       	ldd	r24, Y+3	; 0x03
     8f6:	9c 81       	ldd	r25, Y+4	; 0x04
     8f8:	0e 94 56 0a 	call	0x14ac	; 0x14ac <__subsf3>

000008fc <.Loc.377>:
     8fc:	9b 01       	movw	r18, r22
     8fe:	ac 01       	movw	r20, r24
     900:	89 82       	std	Y+1, r8	; 0x01
     902:	9a 82       	std	Y+2, r9	; 0x02
     904:	ab 82       	std	Y+3, r10	; 0x03
     906:	8e 81       	ldd	r24, Y+6	; 0x06
     908:	8c 83       	std	Y+4, r24	; 0x04
     90a:	69 81       	ldd	r22, Y+1	; 0x01
     90c:	7a 81       	ldd	r23, Y+2	; 0x02
     90e:	8b 81       	ldd	r24, Y+3	; 0x03
     910:	9c 81       	ldd	r25, Y+4	; 0x04
     912:	0e 94 f9 0b 	call	0x17f2	; 0x17f2 <__mulsf3>

00000916 <.Loc.378>:
     916:	9b 01       	movw	r18, r22
     918:	ac 01       	movw	r20, r24
     91a:	b9 82       	std	Y+1, r11	; 0x01
     91c:	ca 82       	std	Y+2, r12	; 0x02
     91e:	db 82       	std	Y+3, r13	; 0x03
     920:	9d 81       	ldd	r25, Y+5	; 0x05
     922:	9c 83       	std	Y+4, r25	; 0x04
     924:	69 81       	ldd	r22, Y+1	; 0x01
     926:	7a 81       	ldd	r23, Y+2	; 0x02
     928:	8b 81       	ldd	r24, Y+3	; 0x03
     92a:	9c 81       	ldd	r25, Y+4	; 0x04
     92c:	0e 94 57 0a 	call	0x14ae	; 0x14ae <__addsf3>

00000930 <.Loc.379>:
     930:	20 e0       	ldi	r18, 0x00	; 0
     932:	30 e0       	ldi	r19, 0x00	; 0
     934:	48 e4       	ldi	r20, 0x48	; 72
     936:	53 e4       	ldi	r21, 0x43	; 67
     938:	69 83       	std	Y+1, r22	; 0x01
     93a:	7a 83       	std	Y+2, r23	; 0x02
     93c:	8b 83       	std	Y+3, r24	; 0x03
     93e:	9c 83       	std	Y+4, r25	; 0x04
     940:	69 81       	ldd	r22, Y+1	; 0x01
     942:	7a 81       	ldd	r23, Y+2	; 0x02
     944:	8b 81       	ldd	r24, Y+3	; 0x03
     946:	9c 81       	ldd	r25, Y+4	; 0x04
     948:	0e 94 c3 0a 	call	0x1586	; 0x1586 <__divsf3>

0000094c <.Loc.380>:
     94c:	20 e0       	ldi	r18, 0x00	; 0
     94e:	30 e0       	ldi	r19, 0x00	; 0
     950:	44 e0       	ldi	r20, 0x04	; 4
     952:	52 e4       	ldi	r21, 0x42	; 66
     954:	69 83       	std	Y+1, r22	; 0x01
     956:	7a 83       	std	Y+2, r23	; 0x02
     958:	8b 83       	std	Y+3, r24	; 0x03
     95a:	9c 83       	std	Y+4, r25	; 0x04
     95c:	69 81       	ldd	r22, Y+1	; 0x01
     95e:	7a 81       	ldd	r23, Y+2	; 0x02
     960:	8b 81       	ldd	r24, Y+3	; 0x03
     962:	9c 81       	ldd	r25, Y+4	; 0x04
     964:	0e 94 57 0a 	call	0x14ae	; 0x14ae <__addsf3>
     968:	69 83       	std	Y+1, r22	; 0x01
     96a:	7a 83       	std	Y+2, r23	; 0x02
     96c:	8b 83       	std	Y+3, r24	; 0x03
     96e:	9c 83       	std	Y+4, r25	; 0x04
     970:	69 81       	ldd	r22, Y+1	; 0x01
     972:	7a 81       	ldd	r23, Y+2	; 0x02
     974:	8b 81       	ldd	r24, Y+3	; 0x03
     976:	9c 81       	ldd	r25, Y+4	; 0x04
     978:	0e 94 3c 0b 	call	0x1678	; 0x1678 <__fixunssfsi>
     97c:	86 2f       	mov	r24, r22

0000097e <.L55>:
            return 33 + dist_low;
        }
    } else {
        return 33 + dist_high;
    }
}
     97e:	27 96       	adiw	r28, 0x07	; 7
     980:	0f b6       	in	r0, 0x3f	; 63
     982:	f8 94       	cli
     984:	de bf       	out	0x3e, r29	; 62
     986:	0f be       	out	0x3f, r0	; 63
     988:	cd bf       	out	0x3d, r28	; 61
     98a:	df 91       	pop	r29
     98c:	cf 91       	pop	r28
     98e:	1f 91       	pop	r17
     990:	0f 91       	pop	r16
     992:	ff 90       	pop	r15
     994:	ef 90       	pop	r14
     996:	df 90       	pop	r13
     998:	cf 90       	pop	r12
     99a:	bf 90       	pop	r11
     99c:	af 90       	pop	r10
     99e:	9f 90       	pop	r9
     9a0:	8f 90       	pop	r8
     9a2:	7f 90       	pop	r7
     9a4:	6f 90       	pop	r6
     9a6:	5f 90       	pop	r5
     9a8:	4f 90       	pop	r4
     9aa:	3f 90       	pop	r3
     9ac:	08 95       	ret

000009ae <.L67>:
            dist_high=0;
     9ae:	1d 82       	std	Y+5, r1	; 0x05
     9b0:	2a cf       	rjmp	.-428    	; 0x806 <.L57>

000009b2 <.L66>:
    uint8_t dist_high=255;
     9b2:	ef ef       	ldi	r30, 0xFF	; 255
     9b4:	ed 83       	std	Y+5, r30	; 0x05
     9b6:	2c cf       	rjmp	.-424    	; 0x810 <.L56>

000009b8 <.L68>:
            dist_low=0;
     9b8:	1e 82       	std	Y+6, r1	; 0x06
     9ba:	46 cf       	rjmp	.-372    	; 0x848 <.L61>

000009bc <.L64>:
            return 33 + dist_low;
     9bc:	8e 81       	ldd	r24, Y+6	; 0x06

000009be <.L71>:
        return 33 + dist_high;
     9be:	8f 5d       	subi	r24, 0xDF	; 223
     9c0:	de cf       	rjmp	.-68     	; 0x97e <.L55>

000009c2 <.L62>:
                double slope=(kilo_irlow[index_low]-kilo_irlow[index_low-1])/0.5;
     9c2:	88 0f       	add	r24, r24
     9c4:	99 1f       	adc	r25, r25

000009c6 <.LVL93>:
     9c6:	fc 01       	movw	r30, r24
     9c8:	e0 5b       	subi	r30, 0xB0	; 176
     9ca:	fe 4f       	sbci	r31, 0xFE	; 254

000009cc <.Loc.392>:
     9cc:	80 81       	ld	r24, Z
     9ce:	91 81       	ldd	r25, Z+1	; 0x01
     9d0:	d7 01       	movw	r26, r14

000009d2 <.LVL94>:
     9d2:	a8 1b       	sub	r26, r24
     9d4:	b9 0b       	sbc	r27, r25

000009d6 <.Loc.394>:
     9d6:	9d 01       	movw	r18, r26
     9d8:	50 e0       	ldi	r21, 0x00	; 0
     9da:	40 e0       	ldi	r20, 0x00	; 0
     9dc:	29 83       	std	Y+1, r18	; 0x01
     9de:	3a 83       	std	Y+2, r19	; 0x02
     9e0:	4b 83       	std	Y+3, r20	; 0x03
     9e2:	5c 83       	std	Y+4, r21	; 0x04
     9e4:	ca 01       	movw	r24, r20
     9e6:	bd 01       	movw	r22, r26
     9e8:	0e 94 6b 0b 	call	0x16d6	; 0x16d6 <__floatunsisf>

000009ec <.Loc.395>:
     9ec:	9b 01       	movw	r18, r22
     9ee:	ac 01       	movw	r20, r24
     9f0:	69 83       	std	Y+1, r22	; 0x01
     9f2:	7a 83       	std	Y+2, r23	; 0x02
     9f4:	8b 83       	std	Y+3, r24	; 0x03
     9f6:	9c 83       	std	Y+4, r25	; 0x04
     9f8:	69 81       	ldd	r22, Y+1	; 0x01
     9fa:	7a 81       	ldd	r23, Y+2	; 0x02
     9fc:	8b 81       	ldd	r24, Y+3	; 0x03
     9fe:	9c 81       	ldd	r25, Y+4	; 0x04
     a00:	0e 94 57 0a 	call	0x14ae	; 0x14ae <__addsf3>
     a04:	96 2e       	mov	r9, r22
     a06:	a7 2e       	mov	r10, r23
     a08:	b8 2e       	mov	r11, r24
     a0a:	9e 83       	std	Y+6, r25	; 0x06

00000a0c <.LVL97>:
                b=(((((double)dist->low_gain-(double)b)*(double)10)));
     a0c:	c6 01       	movw	r24, r12
     a0e:	dd 0c       	add	r13, r13
     a10:	aa 0b       	sbc	r26, r26
     a12:	bb 0b       	sbc	r27, r27
     a14:	89 83       	std	Y+1, r24	; 0x01
     a16:	9a 83       	std	Y+2, r25	; 0x02
     a18:	ab 83       	std	Y+3, r26	; 0x03
     a1a:	bc 83       	std	Y+4, r27	; 0x04
     a1c:	bc 01       	movw	r22, r24
     a1e:	cd 01       	movw	r24, r26
     a20:	0e 94 6d 0b 	call	0x16da	; 0x16da <__floatsisf>

00000a24 <.LVL98>:
     a24:	3b 01       	movw	r6, r22
     a26:	6c 01       	movw	r12, r24

00000a28 <.Loc.400>:
                double b=(double)kilo_irlow[index_low]-(double)slope*((double)index_low*(double)0.5+(double)0.0);
     a28:	97 01       	movw	r18, r14
     a2a:	50 e0       	ldi	r21, 0x00	; 0
     a2c:	40 e0       	ldi	r20, 0x00	; 0
     a2e:	29 83       	std	Y+1, r18	; 0x01
     a30:	3a 83       	std	Y+2, r19	; 0x02
     a32:	4b 83       	std	Y+3, r20	; 0x03
     a34:	5c 83       	std	Y+4, r21	; 0x04
     a36:	ca 01       	movw	r24, r20
     a38:	b7 01       	movw	r22, r14
     a3a:	0e 94 6b 0b 	call	0x16d6	; 0x16d6 <__floatunsisf>
     a3e:	2b 01       	movw	r4, r22
     a40:	7c 01       	movw	r14, r24

00000a42 <.Loc.401>:
     a42:	88 2d       	mov	r24, r8
     a44:	90 e0       	ldi	r25, 0x00	; 0
     a46:	b0 e0       	ldi	r27, 0x00	; 0
     a48:	a0 e0       	ldi	r26, 0x00	; 0
     a4a:	89 83       	std	Y+1, r24	; 0x01
     a4c:	9a 83       	std	Y+2, r25	; 0x02
     a4e:	ab 83       	std	Y+3, r26	; 0x03
     a50:	bc 83       	std	Y+4, r27	; 0x04
     a52:	bc 01       	movw	r22, r24
     a54:	cd 01       	movw	r24, r26
     a56:	0e 94 6b 0b 	call	0x16d6	; 0x16d6 <__floatunsisf>

00000a5a <.Loc.402>:
     a5a:	20 e0       	ldi	r18, 0x00	; 0
     a5c:	30 e0       	ldi	r19, 0x00	; 0
     a5e:	40 e0       	ldi	r20, 0x00	; 0
     a60:	5f e3       	ldi	r21, 0x3F	; 63
     a62:	69 83       	std	Y+1, r22	; 0x01
     a64:	7a 83       	std	Y+2, r23	; 0x02
     a66:	8b 83       	std	Y+3, r24	; 0x03
     a68:	9c 83       	std	Y+4, r25	; 0x04
     a6a:	69 81       	ldd	r22, Y+1	; 0x01
     a6c:	7a 81       	ldd	r23, Y+2	; 0x02
     a6e:	8b 81       	ldd	r24, Y+3	; 0x03
     a70:	9c 81       	ldd	r25, Y+4	; 0x04
     a72:	0e 94 f9 0b 	call	0x17f2	; 0x17f2 <__mulsf3>

00000a76 <.Loc.403>:
     a76:	20 e0       	ldi	r18, 0x00	; 0
     a78:	30 e0       	ldi	r19, 0x00	; 0
     a7a:	a9 01       	movw	r20, r18
     a7c:	69 83       	std	Y+1, r22	; 0x01
     a7e:	7a 83       	std	Y+2, r23	; 0x02
     a80:	8b 83       	std	Y+3, r24	; 0x03
     a82:	9c 83       	std	Y+4, r25	; 0x04
     a84:	69 81       	ldd	r22, Y+1	; 0x01
     a86:	7a 81       	ldd	r23, Y+2	; 0x02
     a88:	8b 81       	ldd	r24, Y+3	; 0x03
     a8a:	9c 81       	ldd	r25, Y+4	; 0x04
     a8c:	0e 94 57 0a 	call	0x14ae	; 0x14ae <__addsf3>

00000a90 <.Loc.404>:
     a90:	29 2d       	mov	r18, r9
     a92:	3a 2d       	mov	r19, r10
     a94:	4b 2d       	mov	r20, r11
     a96:	5e 81       	ldd	r21, Y+6	; 0x06
     a98:	69 83       	std	Y+1, r22	; 0x01
     a9a:	7a 83       	std	Y+2, r23	; 0x02
     a9c:	8b 83       	std	Y+3, r24	; 0x03
     a9e:	9c 83       	std	Y+4, r25	; 0x04
     aa0:	69 81       	ldd	r22, Y+1	; 0x01
     aa2:	7a 81       	ldd	r23, Y+2	; 0x02
     aa4:	8b 81       	ldd	r24, Y+3	; 0x03
     aa6:	9c 81       	ldd	r25, Y+4	; 0x04
     aa8:	0e 94 f9 0b 	call	0x17f2	; 0x17f2 <__mulsf3>

00000aac <.Loc.405>:
     aac:	9b 01       	movw	r18, r22
     aae:	ac 01       	movw	r20, r24
     ab0:	49 82       	std	Y+1, r4	; 0x01
     ab2:	5a 82       	std	Y+2, r5	; 0x02
     ab4:	eb 82       	std	Y+3, r14	; 0x03
     ab6:	fc 82       	std	Y+4, r15	; 0x04
     ab8:	69 81       	ldd	r22, Y+1	; 0x01
     aba:	7a 81       	ldd	r23, Y+2	; 0x02
     abc:	8b 81       	ldd	r24, Y+3	; 0x03
     abe:	9c 81       	ldd	r25, Y+4	; 0x04
     ac0:	0e 94 56 0a 	call	0x14ac	; 0x14ac <__subsf3>

00000ac4 <.Loc.406>:
                b=(((((double)dist->low_gain-(double)b)*(double)10)));
     ac4:	9b 01       	movw	r18, r22
     ac6:	ac 01       	movw	r20, r24
     ac8:	69 82       	std	Y+1, r6	; 0x01
     aca:	7a 82       	std	Y+2, r7	; 0x02
     acc:	cb 82       	std	Y+3, r12	; 0x03
     ace:	dc 82       	std	Y+4, r13	; 0x04
     ad0:	69 81       	ldd	r22, Y+1	; 0x01
     ad2:	7a 81       	ldd	r23, Y+2	; 0x02
     ad4:	8b 81       	ldd	r24, Y+3	; 0x03
     ad6:	9c 81       	ldd	r25, Y+4	; 0x04
     ad8:	0e 94 56 0a 	call	0x14ac	; 0x14ac <__subsf3>

00000adc <.Loc.407>:
     adc:	20 e0       	ldi	r18, 0x00	; 0
     ade:	30 e0       	ldi	r19, 0x00	; 0
     ae0:	40 e2       	ldi	r20, 0x20	; 32
     ae2:	51 e4       	ldi	r21, 0x41	; 65
     ae4:	69 83       	std	Y+1, r22	; 0x01
     ae6:	7a 83       	std	Y+2, r23	; 0x02
     ae8:	8b 83       	std	Y+3, r24	; 0x03
     aea:	9c 83       	std	Y+4, r25	; 0x04
     aec:	69 81       	ldd	r22, Y+1	; 0x01
     aee:	7a 81       	ldd	r23, Y+2	; 0x02
     af0:	8b 81       	ldd	r24, Y+3	; 0x03
     af2:	9c 81       	ldd	r25, Y+4	; 0x04

00000af4 <.Loc.410>:
     af4:	0e 94 f9 0b 	call	0x17f2	; 0x17f2 <__mulsf3>

00000af8 <.Loc.411>:
                b=((int)((int)b/(int)slope));
     af8:	69 83       	std	Y+1, r22	; 0x01

00000afa <.Loc.412>:
     afa:	7a 83       	std	Y+2, r23	; 0x02
     afc:	8b 83       	std	Y+3, r24	; 0x03
     afe:	9c 83       	std	Y+4, r25	; 0x04
     b00:	69 81       	ldd	r22, Y+1	; 0x01
     b02:	7a 81       	ldd	r23, Y+2	; 0x02
     b04:	8b 81       	ldd	r24, Y+3	; 0x03
     b06:	9c 81       	ldd	r25, Y+4	; 0x04
     b08:	0e 94 35 0b 	call	0x166a	; 0x166a <__fixsfsi>
     b0c:	7b 01       	movw	r14, r22

00000b0e <.Loc.413>:
     b0e:	99 82       	std	Y+1, r9	; 0x01
     b10:	aa 82       	std	Y+2, r10	; 0x02
     b12:	bb 82       	std	Y+3, r11	; 0x03
     b14:	9e 81       	ldd	r25, Y+6	; 0x06
     b16:	9c 83       	std	Y+4, r25	; 0x04
     b18:	69 81       	ldd	r22, Y+1	; 0x01
     b1a:	7a 81       	ldd	r23, Y+2	; 0x02
     b1c:	8b 81       	ldd	r24, Y+3	; 0x03
     b1e:	9c 81       	ldd	r25, Y+4	; 0x04
     b20:	0e 94 35 0b 	call	0x166a	; 0x166a <__fixsfsi>
     b24:	69 83       	std	Y+1, r22	; 0x01
     b26:	7a 83       	std	Y+2, r23	; 0x02
     b28:	8b 83       	std	Y+3, r24	; 0x03
     b2a:	9c 83       	std	Y+4, r25	; 0x04

00000b2c <.Loc.414>:
     b2c:	c7 01       	movw	r24, r14
     b2e:	69 81       	ldd	r22, Y+1	; 0x01
     b30:	7a 81       	ldd	r23, Y+2	; 0x02
     b32:	0e 94 19 0a 	call	0x1432	; 0x1432 <__divmodhi4>

00000b36 <.Loc.415>:
                dist_low=b;
     b36:	6e 83       	std	Y+6, r22	; 0x06

00000b38 <.LBE114>:
    if (dist_low != 255) {
     b38:	6f 3f       	cpi	r22, 0xFF	; 255
     b3a:	09 f0       	breq	.+2      	; 0xb3e <.L60>

00000b3c <L0^A>:
     b3c:	85 ce       	rjmp	.-758    	; 0x848 <.L61>

00000b3e <.L60>:
        return 33 + dist_high;
     b3e:	8d 81       	ldd	r24, Y+5	; 0x05
     b40:	3e cf       	rjmp	.-388    	; 0x9be <.L71>

00000b42 <__vector_14>:

/**
 * Timer0 interrupt.
 * Used to send messages every kilo_tx_period ticks.
 */
ISR(TIMER0_COMPA_vect) {
     b42:	1f 92       	push	r1

00000b44 <.LCFI28>:
     b44:	0f 92       	push	r0

00000b46 <.LCFI29>:
     b46:	0f b6       	in	r0, 0x3f	; 63
     b48:	0f 92       	push	r0
     b4a:	11 24       	eor	r1, r1
     b4c:	2f 93       	push	r18

00000b4e <.LCFI30>:
     b4e:	3f 93       	push	r19

00000b50 <.LCFI31>:
     b50:	4f 93       	push	r20

00000b52 <.LCFI32>:
     b52:	5f 93       	push	r21

00000b54 <.LCFI33>:
     b54:	6f 93       	push	r22

00000b56 <.LCFI34>:
     b56:	7f 93       	push	r23

00000b58 <.LCFI35>:
     b58:	8f 93       	push	r24

00000b5a <.LCFI36>:
     b5a:	9f 93       	push	r25

00000b5c <.LCFI37>:
     b5c:	af 93       	push	r26

00000b5e <.LCFI38>:
     b5e:	bf 93       	push	r27

00000b60 <.LCFI39>:
     b60:	ef 93       	push	r30

00000b62 <.LCFI40>:
     b62:	ff 93       	push	r31

00000b64 <.LCFI41>:
    tx_clock += tx_increment;
     b64:	80 91 71 01 	lds	r24, 0x0171	; 0x800171 <tx_clock>
     b68:	90 91 72 01 	lds	r25, 0x0172	; 0x800172 <tx_clock+0x1>
     b6c:	20 91 6f 01 	lds	r18, 0x016F	; 0x80016f <tx_increment>
     b70:	30 91 70 01 	lds	r19, 0x0170	; 0x800170 <tx_increment+0x1>
     b74:	82 0f       	add	r24, r18
     b76:	93 1f       	adc	r25, r19
     b78:	90 93 72 01 	sts	0x0172, r25	; 0x800172 <tx_clock+0x1>
     b7c:	80 93 71 01 	sts	0x0171, r24	; 0x800171 <tx_clock>

00000b80 <.Loc.424>:
    tx_increment = 0xFF;
     b80:	8f ef       	ldi	r24, 0xFF	; 255
     b82:	90 e0       	ldi	r25, 0x00	; 0
     b84:	90 93 70 01 	sts	0x0170, r25	; 0x800170 <tx_increment+0x1>
     b88:	80 93 6f 01 	sts	0x016F, r24	; 0x80016f <tx_increment>

00000b8c <.Loc.426>:
    OCR0A = tx_increment;
     b8c:	8f ef       	ldi	r24, 0xFF	; 255
     b8e:	87 bd       	out	0x27, r24	; 39

00000b90 <.Loc.428>:
    kilo_ticks++;
     b90:	80 91 4d 01 	lds	r24, 0x014D	; 0x80014d <kilo_ticks>
     b94:	90 91 4e 01 	lds	r25, 0x014E	; 0x80014e <kilo_ticks+0x1>
     b98:	a0 91 4f 01 	lds	r26, 0x014F	; 0x80014f <kilo_ticks+0x2>
     b9c:	b0 91 50 01 	lds	r27, 0x0150	; 0x800150 <kilo_ticks+0x3>
     ba0:	01 96       	adiw	r24, 0x01	; 1
     ba2:	a1 1d       	adc	r26, r1
     ba4:	b1 1d       	adc	r27, r1
     ba6:	80 93 4d 01 	sts	0x014D, r24	; 0x80014d <kilo_ticks>
     baa:	90 93 4e 01 	sts	0x014E, r25	; 0x80014e <kilo_ticks+0x1>
     bae:	a0 93 4f 01 	sts	0x014F, r26	; 0x80014f <kilo_ticks+0x2>
     bb2:	b0 93 50 01 	sts	0x0150, r27	; 0x800150 <kilo_ticks+0x3>

00000bb6 <.Loc.430>:

    if(!rx_busy && tx_clock>kilo_tx_period && kilo_state == RUNNING) {
     bb6:	80 91 51 01 	lds	r24, 0x0151	; 0x800151 <rx_busy>

00000bba <.Loc.432>:
     bba:	81 11       	cpse	r24, r1
     bbc:	23 c0       	rjmp	.+70     	; 0xc04 <.L72>

00000bbe <.Loc.433>:
     bbe:	80 91 80 01 	lds	r24, 0x0180	; 0x800180 <kilo_tx_period>
     bc2:	90 91 81 01 	lds	r25, 0x0181	; 0x800181 <kilo_tx_period+0x1>

00000bc6 <.Loc.434>:
     bc6:	20 91 71 01 	lds	r18, 0x0171	; 0x800171 <tx_clock>
     bca:	30 91 72 01 	lds	r19, 0x0172	; 0x800172 <tx_clock+0x1>
     bce:	82 17       	cp	r24, r18
     bd0:	93 07       	cpc	r25, r19
     bd2:	c0 f4       	brcc	.+48     	; 0xc04 <.L72>

00000bd4 <.Loc.435>:
     bd4:	80 91 16 01 	lds	r24, 0x0116	; 0x800116 <kilo_state>

00000bd8 <.Loc.436>:
     bd8:	84 30       	cpi	r24, 0x04	; 4
     bda:	a1 f4       	brne	.+40     	; 0xc04 <.L72>

00000bdc <.LBB115>:
        message_t *msg = kilo_message_tx();
     bdc:	e0 91 06 01 	lds	r30, 0x0106	; 0x800106 <kilo_message_tx>
     be0:	f0 91 07 01 	lds	r31, 0x0107	; 0x800107 <kilo_message_tx+0x1>
     be4:	09 95       	icall

00000be6 <.LVL114>:
        if (msg) {
     be6:	00 97       	sbiw	r24, 0x00	; 0
     be8:	69 f0       	breq	.+26     	; 0xc04 <.L72>

00000bea <.Loc.441>:
            if (message_send(msg)) {
     bea:	0e 94 79 09 	call	0x12f2	; 0x12f2 <message_send>

00000bee <.LVL115>:
     bee:	88 23       	and	r24, r24
     bf0:	d1 f0       	breq	.+52     	; 0xc26 <.L76>

00000bf2 <.Loc.444>:
                kilo_message_tx_success();
     bf2:	e0 91 04 01 	lds	r30, 0x0104	; 0x800104 <kilo_message_tx_success>
     bf6:	f0 91 05 01 	lds	r31, 0x0105	; 0x800105 <kilo_message_tx_success+0x1>
     bfa:	09 95       	icall

00000bfc <.Loc.445>:
                tx_clock = 0;
     bfc:	10 92 72 01 	sts	0x0172, r1	; 0x800172 <tx_clock+0x1>
     c00:	10 92 71 01 	sts	0x0171, r1	; 0x800171 <tx_clock>

00000c04 <.L72>:
                tx_increment = rand()&0xFF;
                OCR0A = tx_increment;
            }
        }
    }
}
     c04:	ff 91       	pop	r31
     c06:	ef 91       	pop	r30
     c08:	bf 91       	pop	r27
     c0a:	af 91       	pop	r26
     c0c:	9f 91       	pop	r25
     c0e:	8f 91       	pop	r24
     c10:	7f 91       	pop	r23
     c12:	6f 91       	pop	r22
     c14:	5f 91       	pop	r21
     c16:	4f 91       	pop	r20
     c18:	3f 91       	pop	r19
     c1a:	2f 91       	pop	r18
     c1c:	0f 90       	pop	r0
     c1e:	0f be       	out	0x3f, r0	; 63
     c20:	0f 90       	pop	r0
     c22:	1f 90       	pop	r1
     c24:	18 95       	reti

00000c26 <.L76>:
                tx_increment = rand()&0xFF;
     c26:	0e 94 ce 0c 	call	0x199c	; 0x199c <rand>

00000c2a <.LVL117>:
     c2a:	9c 01       	movw	r18, r24

00000c2c <.Loc.451>:
     c2c:	99 27       	eor	r25, r25

00000c2e <.Loc.452>:
     c2e:	90 93 70 01 	sts	0x0170, r25	; 0x800170 <tx_increment+0x1>
     c32:	80 93 6f 01 	sts	0x016F, r24	; 0x80016f <tx_increment>

00000c36 <.Loc.453>:
                OCR0A = tx_increment;
     c36:	27 bd       	out	0x27, r18	; 39

00000c38 <.LBE116>:
}
     c38:	e5 cf       	rjmp	.-54     	; 0xc04 <.L72>

00000c3a <set_color>:
EMPTY_INTERRUPT(TIMER0_COMPA_vect)

#endif

void set_color(uint8_t rgb) {
    if (rgb&(1<<0))
     c3a:	80 ff       	sbrs	r24, 0
     c3c:	11 c0       	rjmp	.+34     	; 0xc60 <.L81>

00000c3e <.Loc.459>:
        DDRD |= (1<<5);
     c3e:	55 9a       	sbi	0x0a, 5	; 10

00000c40 <.L82>:
    else
        DDRD &= ~(1<<5);

    if (rgb&(1<<1))
     c40:	81 ff       	sbrs	r24, 1
     c42:	10 c0       	rjmp	.+32     	; 0xc64 <.L83>

00000c44 <.Loc.463>:
        DDRD |= (1<<4);
     c44:	54 9a       	sbi	0x0a, 4	; 10

00000c46 <.L84>:
    else
        DDRD &= ~(1<<4);

    if (rgb&(1<<2))
     c46:	82 ff       	sbrs	r24, 2
     c48:	0f c0       	rjmp	.+30     	; 0xc68 <.L85>

00000c4a <.Loc.467>:
        DDRC |= (1<<3);
     c4a:	3b 9a       	sbi	0x07, 3	; 7

00000c4c <.L86>:
    else
        DDRC &= ~(1<<3);

    if (rgb&(1<<3))
     c4c:	83 ff       	sbrs	r24, 3
     c4e:	0e c0       	rjmp	.+28     	; 0xc6c <.L87>

00000c50 <.Loc.471>:
        DDRC |= (1<<2);
     c50:	3a 9a       	sbi	0x07, 2	; 7

00000c52 <.L88>:
    else
        DDRC &= ~(1<<2);

    if (rgb&(1<<4))
     c52:	84 ff       	sbrs	r24, 4
     c54:	0d c0       	rjmp	.+26     	; 0xc70 <.L89>

00000c56 <.Loc.475>:
        DDRC |= (1<<5);
     c56:	3d 9a       	sbi	0x07, 5	; 7

00000c58 <.L90>:
    else
        DDRC &= ~(1<<5);

    if (rgb&(1<<5))
     c58:	85 ff       	sbrs	r24, 5
     c5a:	0c c0       	rjmp	.+24     	; 0xc74 <.L91>

00000c5c <.Loc.479>:
        DDRC |= (1<<4);
     c5c:	3c 9a       	sbi	0x07, 4	; 7
     c5e:	08 95       	ret

00000c60 <.L81>:
        DDRD &= ~(1<<5);
     c60:	55 98       	cbi	0x0a, 5	; 10
     c62:	ee cf       	rjmp	.-36     	; 0xc40 <.L82>

00000c64 <.L83>:
        DDRD &= ~(1<<4);
     c64:	54 98       	cbi	0x0a, 4	; 10
     c66:	ef cf       	rjmp	.-34     	; 0xc46 <.L84>

00000c68 <.L85>:
        DDRC &= ~(1<<3);
     c68:	3b 98       	cbi	0x07, 3	; 7
     c6a:	f0 cf       	rjmp	.-32     	; 0xc4c <.L86>

00000c6c <.L87>:
        DDRC &= ~(1<<2);
     c6c:	3a 98       	cbi	0x07, 2	; 7
     c6e:	f1 cf       	rjmp	.-30     	; 0xc52 <.L88>

00000c70 <.L89>:
        DDRC &= ~(1<<5);
     c70:	3d 98       	cbi	0x07, 5	; 7
     c72:	f2 cf       	rjmp	.-28     	; 0xc58 <.L90>

00000c74 <.L91>:
    else
        DDRC &= ~(1<<4);
     c74:	3c 98       	cbi	0x07, 4	; 7

00000c76 <.Loc.493>:
}
     c76:	08 95       	ret

00000c78 <kilo_start>:
void kilo_start(void (*setup)(void), void (*loop)(void)) {
     c78:	8c 01       	movw	r16, r24
     c7a:	7b 01       	movw	r14, r22

00000c7c <.LVL120>:
    uint8_t has_setup = 0;
     c7c:	d0 e0       	ldi	r29, 0x00	; 0

00000c7e <.LBB117>:
    OCR2B = cw;
     c7e:	cf ef       	ldi	r28, 0xFF	; 255

00000c80 <.LBE117>:
                kilo_state = RUNNING;
     c80:	84 e0       	ldi	r24, 0x04	; 4
     c82:	d8 2e       	mov	r13, r24

00000c84 <.LBB120>:
		__asm__ __volatile__ (
     c84:	98 e1       	ldi	r25, 0x18	; 24
     c86:	c9 2e       	mov	r12, r25
     c88:	29 e2       	ldi	r18, 0x29	; 41
     c8a:	b2 2e       	mov	r11, r18

00000c8c <.L95>:
        switch(kilo_state) {
     c8c:	e0 91 16 01 	lds	r30, 0x0116	; 0x800116 <kilo_state>
     c90:	e7 30       	cpi	r30, 0x07	; 7
     c92:	e0 f7       	brcc	.-8      	; 0xc8c <.L95>
     c94:	f0 e0       	ldi	r31, 0x00	; 0
     c96:	e6 5b       	subi	r30, 0xB6	; 182
     c98:	f2 4f       	sbci	r31, 0xF2	; 242
     c9a:	0c 94 2d 0a 	jmp	0x145a	; 0x145a <__tablejump2__>

00000c9e <.L103>:
                cli();
     c9e:	f8 94       	cli

00000ca0 <.Loc.506>:
                acomp_off();
     ca0:	80 b7       	in	r24, 0x30	; 48
     ca2:	87 7f       	andi	r24, 0xF7	; 247
     ca4:	80 bf       	out	0x30, r24	; 48

00000ca6 <.Loc.507>:
                adc_off();
     ca6:	80 91 7a 00 	lds	r24, 0x007A	; 0x80007a <__DATA_REGION_ORIGIN__+0x1a>
     caa:	8f 77       	andi	r24, 0x7F	; 127
     cac:	80 93 7a 00 	sts	0x007A, r24	; 0x80007a <__DATA_REGION_ORIGIN__+0x1a>

00000cb0 <.Loc.508>:
                ports_off();
     cb0:	14 b8       	out	0x04, r1	; 4

00000cb2 <.Loc.509>:
     cb2:	17 b8       	out	0x07, r1	; 7

00000cb4 <.Loc.510>:
     cb4:	1a b8       	out	0x0a, r1	; 10

00000cb6 <.Loc.511>:
     cb6:	15 b8       	out	0x05, r1	; 5

00000cb8 <.Loc.512>:
     cb8:	18 b8       	out	0x08, r1	; 8

00000cba <.Loc.513>:
     cba:	1b b8       	out	0x0b, r1	; 11

00000cbc <.LBB123>:
     cbc:	0f b6       	in	r0, 0x3f	; 63
     cbe:	f8 94       	cli
     cc0:	a8 95       	wdr
     cc2:	c0 92 60 00 	sts	0x0060, r12	; 0x800060 <__DATA_REGION_ORIGIN__>
     cc6:	0f be       	out	0x3f, r0	; 63
     cc8:	b0 92 60 00 	sts	0x0060, r11	; 0x800060 <__DATA_REGION_ORIGIN__>

00000ccc <.LBE123>:
                WDTCSR |= (1<<WDIE);
     ccc:	80 91 60 00 	lds	r24, 0x0060	; 0x800060 <__DATA_REGION_ORIGIN__>
     cd0:	80 64       	ori	r24, 0x40	; 64
     cd2:	80 93 60 00 	sts	0x0060, r24	; 0x800060 <__DATA_REGION_ORIGIN__>

00000cd6 <.Loc.522>:
                set_sleep_mode(SLEEP_MODE_PWR_DOWN);
     cd6:	83 b7       	in	r24, 0x33	; 51
     cd8:	81 7f       	andi	r24, 0xF1	; 241
     cda:	84 60       	ori	r24, 0x04	; 4
     cdc:	83 bf       	out	0x33, r24	; 51

00000cde <.Loc.524>:
                cli();
     cde:	f8 94       	cli

00000ce0 <.Loc.526>:
                sleep_enable();
     ce0:	83 b7       	in	r24, 0x33	; 51
     ce2:	81 60       	ori	r24, 0x01	; 1
     ce4:	83 bf       	out	0x33, r24	; 51

00000ce6 <.Loc.528>:
                sei();
     ce6:	78 94       	sei

00000ce8 <.Loc.530>:
                sleep_cpu();
     ce8:	88 95       	sleep

00000cea <.Loc.532>:
                sleep_disable();
     cea:	83 b7       	in	r24, 0x33	; 51
     cec:	8e 7f       	andi	r24, 0xFE	; 254
     cee:	83 bf       	out	0x33, r24	; 51

00000cf0 <.Loc.535>:
                sei();
     cf0:	78 94       	sei

00000cf2 <.Loc.537>:
                rx_busy = 0;
     cf2:	10 92 51 01 	sts	0x0151, r1	; 0x800151 <rx_busy>

00000cf6 <.Loc.539>:
                ports_on();
     cf6:	52 9a       	sbi	0x0a, 2	; 10

00000cf8 <.Loc.540>:
     cf8:	5a 9a       	sbi	0x0b, 2	; 11

00000cfa <.Loc.541>:
                adc_on();
     cfa:	80 91 7a 00 	lds	r24, 0x007A	; 0x80007a <__DATA_REGION_ORIGIN__+0x1a>
     cfe:	80 68       	ori	r24, 0x80	; 128
     d00:	80 93 7a 00 	sts	0x007A, r24	; 0x80007a <__DATA_REGION_ORIGIN__+0x1a>

00000d04 <.LBB124>:
	#else
		//round up by default
		__ticks_dc = (uint32_t)(ceil(fabs(__tmp)));
	#endif

	__builtin_avr_delay_cycles(__ticks_dc);
     d04:	87 e5       	ldi	r24, 0x57	; 87
     d06:	92 e0       	ldi	r25, 0x02	; 2

00000d08 <.L1^B3>:
     d08:	01 97       	sbiw	r24, 0x01	; 1
     d0a:	f1 f7       	brne	.-4      	; 0xd08 <.L1^B3>
     d0c:	00 c0       	rjmp	.+0      	; 0xd0e <L0^A>

00000d0e <L0^A>:
	...

00000d10 <.LBE127>:
                acomp_on();
     d10:	80 b7       	in	r24, 0x30	; 48
     d12:	88 61       	ori	r24, 0x18	; 24
     d14:	80 bf       	out	0x30, r24	; 48

00000d16 <.Loc.555>:
                set_color(RGB(3,3,3));
     d16:	8f e3       	ldi	r24, 0x3F	; 63
     d18:	0e 94 1d 06 	call	0xc3a	; 0xc3a <set_color>

00000d1c <.LBB128>:
	__builtin_avr_delay_cycles(__ticks_dc);
     d1c:	ef e1       	ldi	r30, 0x1F	; 31
     d1e:	fe e4       	ldi	r31, 0x4E	; 78

00000d20 <.L1^B4>:
     d20:	31 97       	sbiw	r30, 0x01	; 1
     d22:	f1 f7       	brne	.-4      	; 0xd20 <.L1^B4>
     d24:	00 c0       	rjmp	.+0      	; 0xd26 <L0^A>

00000d26 <L0^A>:
	...

00000d28 <.LBE131>:
                if (rx_busy) {
     d28:	80 91 51 01 	lds	r24, 0x0151	; 0x800151 <rx_busy>

00000d2c <.Loc.569>:
     d2c:	88 23       	and	r24, r24
     d2e:	61 f0       	breq	.+24     	; 0xd48 <.L109>

00000d30 <.Loc.570>:
                    set_color(RGB(3,0,0));
     d30:	83 e0       	ldi	r24, 0x03	; 3
     d32:	0e 94 1d 06 	call	0xc3a	; 0xc3a <set_color>

00000d36 <.LBB132>:
     d36:	ff ef       	ldi	r31, 0xFF	; 255
     d38:	20 e7       	ldi	r18, 0x70	; 112
     d3a:	82 e0       	ldi	r24, 0x02	; 2

00000d3c <.L1^B5>:
     d3c:	f1 50       	subi	r31, 0x01	; 1
     d3e:	20 40       	sbci	r18, 0x00	; 0
     d40:	80 40       	sbci	r24, 0x00	; 0
     d42:	e1 f7       	brne	.-8      	; 0xd3c <.L1^B5>
     d44:	00 c0       	rjmp	.+0      	; 0xd46 <L0^A>

00000d46 <L0^A>:
	...

00000d48 <.L109>:
                    set_color(RGB(0,0,0));
     d48:	80 e0       	ldi	r24, 0x00	; 0
     d4a:	1e c0       	rjmp	.+60     	; 0xd88 <.L119>

00000d4c <.L102>:
                set_color(RGB(0,3,0));
     d4c:	8c e0       	ldi	r24, 0x0C	; 12
     d4e:	0e 94 1d 06 	call	0xc3a	; 0xc3a <set_color>

00000d52 <.LBB136>:
     d52:	ef ec       	ldi	r30, 0xCF	; 207
     d54:	f7 e0       	ldi	r31, 0x07	; 7

00000d56 <.L1^B6>:
     d56:	31 97       	sbiw	r30, 0x01	; 1
     d58:	f1 f7       	brne	.-4      	; 0xd56 <.L1^B6>
     d5a:	00 c0       	rjmp	.+0      	; 0xd5c <L0^A>

00000d5c <L0^A>:
	...

00000d5e <.LBE139>:
                set_color(RGB(0,0,0));
     d5e:	80 e0       	ldi	r24, 0x00	; 0
     d60:	0e 94 1d 06 	call	0xc3a	; 0xc3a <set_color>

00000d64 <.LBB140>:
     d64:	ff ef       	ldi	r31, 0xFF	; 255
     d66:	21 ee       	ldi	r18, 0xE1	; 225
     d68:	84 e0       	ldi	r24, 0x04	; 4

00000d6a <.L1^B7>:
     d6a:	f1 50       	subi	r31, 0x01	; 1
     d6c:	20 40       	sbci	r18, 0x00	; 0
     d6e:	80 40       	sbci	r24, 0x00	; 0
     d70:	e1 f7       	brne	.-8      	; 0xd6a <.L1^B7>

00000d72 <.L120>:
     d72:	00 c0       	rjmp	.+0      	; 0xd74 <L0^A>

00000d74 <L0^A>:
	...

00000d76 <.Loc.608>:
}
     d76:	8a cf       	rjmp	.-236    	; 0xc8c <.L95>

00000d78 <.L101>:
                voltage = get_voltage();
     d78:	0e 94 e5 02 	call	0x5ca	; 0x5ca <get_voltage>

00000d7c <.LVL135>:
     d7c:	9c 01       	movw	r18, r24

00000d7e <.LVL136>:
                if(voltage > 682)
     d7e:	2b 3a       	cpi	r18, 0xAB	; 171
     d80:	92 e0       	ldi	r25, 0x02	; 2
     d82:	39 07       	cpc	r19, r25
     d84:	24 f0       	brlt	.+8      	; 0xd8e <.L106>

00000d86 <.Loc.613>:
                    set_color(RGB(0,3,0));
     d86:	8c e0       	ldi	r24, 0x0C	; 12

00000d88 <.L119>:
     d88:	0e 94 1d 06 	call	0xc3a	; 0xc3a <set_color>

00000d8c <.LVL138>:
     d8c:	7f cf       	rjmp	.-258    	; 0xc8c <.L95>

00000d8e <.L106>:
                    set_color(RGB(0,0,3));
     d8e:	80 e3       	ldi	r24, 0x30	; 48

00000d90 <.Loc.617>:
                else if(voltage > 648)
     d90:	29 38       	cpi	r18, 0x89	; 137
     d92:	e2 e0       	ldi	r30, 0x02	; 2
     d94:	3e 07       	cpc	r19, r30
     d96:	c4 f7       	brge	.-16     	; 0xd88 <.L119>

00000d98 <.Loc.618>:
                    set_color(RGB(3,3,0));
     d98:	8f e0       	ldi	r24, 0x0F	; 15

00000d9a <.Loc.620>:
                else if(voltage > 614)
     d9a:	27 36       	cpi	r18, 0x67	; 103
     d9c:	32 40       	sbci	r19, 0x02	; 2
     d9e:	a4 f7       	brge	.-24     	; 0xd88 <.L119>

00000da0 <.Loc.621>:
                    set_color(RGB(3,0,0));
     da0:	83 e0       	ldi	r24, 0x03	; 3
     da2:	f2 cf       	rjmp	.-28     	; 0xd88 <.L119>

00000da4 <.L98>:
                if (is_charging()) {
     da4:	48 99       	sbic	0x09, 0	; 9
     da6:	d0 cf       	rjmp	.-96     	; 0xd48 <.L109>

00000da8 <.Loc.624>:
                    set_color(RGB(1,0,0));
     da8:	81 e0       	ldi	r24, 0x01	; 1
     daa:	0e 94 1d 06 	call	0xc3a	; 0xc3a <set_color>

00000dae <.LBB148>:
	__builtin_avr_delay_cycles(__ticks_dc);
     dae:	8f ec       	ldi	r24, 0xCF	; 207
     db0:	97 e0       	ldi	r25, 0x07	; 7

00000db2 <.L1^B8>:
     db2:	01 97       	sbiw	r24, 0x01	; 1
     db4:	f1 f7       	brne	.-4      	; 0xdb2 <.L1^B8>
     db6:	00 c0       	rjmp	.+0      	; 0xdb8 <L0^A>

00000db8 <L0^A>:
	...

00000dba <.LBE151>:
                    set_color(RGB(0,0,0));
     dba:	80 e0       	ldi	r24, 0x00	; 0
     dbc:	0e 94 1d 06 	call	0xc3a	; 0xc3a <set_color>

00000dc0 <.LBB152>:
     dc0:	9f ef       	ldi	r25, 0xFF	; 255
     dc2:	e1 ee       	ldi	r30, 0xE1	; 225
     dc4:	f4 e0       	ldi	r31, 0x04	; 4

00000dc6 <.L1^B9>:
     dc6:	91 50       	subi	r25, 0x01	; 1
     dc8:	e0 40       	sbci	r30, 0x00	; 0
     dca:	f0 40       	sbci	r31, 0x00	; 0
     dcc:	e1 f7       	brne	.-8      	; 0xdc6 <.L1^B9>
     dce:	d1 cf       	rjmp	.-94     	; 0xd72 <.L120>

00000dd0 <.L100>:
                if (!has_setup) {
     dd0:	d1 11       	cpse	r29, r1
     dd2:	02 c0       	rjmp	.+4      	; 0xdd8 <.L110>

00000dd4 <.Loc.650>:
                    setup();
     dd4:	f8 01       	movw	r30, r16
     dd6:	09 95       	icall

00000dd8 <.L110>:
                kilo_state = RUNNING;
     dd8:	d0 92 16 01 	sts	0x0116, r13	; 0x800116 <kilo_state>
     ddc:	d1 e0       	ldi	r29, 0x01	; 1

00000dde <.L99>:
                loop();
     dde:	f7 01       	movw	r30, r14
     de0:	09 95       	icall

00000de2 <.LVL147>:
                break;
     de2:	54 cf       	rjmp	.-344    	; 0xc8c <.L95>

00000de4 <.L96>:
                if (cur_motion == MOVE_STOP) {
     de4:	80 91 14 01 	lds	r24, 0x0114	; 0x800114 <cur_motion>

00000de8 <.Loc.658>:
     de8:	81 11       	cpse	r24, r1
     dea:	07 c0       	rjmp	.+14     	; 0xdfa <.L111>

00000dec <.LBB154>:
    OCR2A = ccw;
     dec:	10 92 b3 00 	sts	0x00B3, r1	; 0x8000b3 <__DATA_REGION_ORIGIN__+0x53>

00000df0 <.Loc.663>:
    OCR2B = cw;
     df0:	10 92 b4 00 	sts	0x00B4, r1	; 0x8000b4 <__DATA_REGION_ORIGIN__+0x54>

00000df4 <.LBE154>:
                    prev_motion = MOVE_STOP;
     df4:	10 92 15 01 	sts	0x0115, r1	; 0x800115 <prev_motion>
     df8:	49 cf       	rjmp	.-366    	; 0xc8c <.L95>

00000dfa <.L111>:
                    if (cur_motion != prev_motion) {
     dfa:	90 91 14 01 	lds	r25, 0x0114	; 0x800114 <cur_motion>
     dfe:	80 91 15 01 	lds	r24, 0x0115	; 0x800115 <prev_motion>

00000e02 <.Loc.670>:
     e02:	98 17       	cp	r25, r24
     e04:	09 f4       	brne	.+2      	; 0xe08 <.Loc.671>

00000e06 <L0^A>:
     e06:	42 cf       	rjmp	.-380    	; 0xc8c <.L95>

00000e08 <.Loc.671>:
                        prev_motion = cur_motion;
     e08:	80 91 14 01 	lds	r24, 0x0114	; 0x800114 <cur_motion>
     e0c:	80 93 15 01 	sts	0x0115, r24	; 0x800115 <prev_motion>

00000e10 <.Loc.673>:
                        if (cur_motion == MOVE_LEFT) {
     e10:	80 91 14 01 	lds	r24, 0x0114	; 0x800114 <cur_motion>

00000e14 <.Loc.675>:
     e14:	81 30       	cpi	r24, 0x01	; 1
     e16:	89 f4       	brne	.+34     	; 0xe3a <.L112>

00000e18 <.LBB156>:
    OCR2A = ccw;
     e18:	c0 93 b3 00 	sts	0x00B3, r28	; 0x8000b3 <__DATA_REGION_ORIGIN__+0x53>

00000e1c <.Loc.680>:
    OCR2B = cw;
     e1c:	10 92 b4 00 	sts	0x00B4, r1	; 0x8000b4 <__DATA_REGION_ORIGIN__+0x54>

00000e20 <.LBB158>:
     e20:	8f e2       	ldi	r24, 0x2F	; 47
     e22:	95 e7       	ldi	r25, 0x75	; 117

00000e24 <.L1^B10>:
     e24:	01 97       	sbiw	r24, 0x01	; 1
     e26:	f1 f7       	brne	.-4      	; 0xe24 <.L1^B10>
     e28:	00 c0       	rjmp	.+0      	; 0xe2a <L0^A>

00000e2a <L0^A>:
	...

00000e2c <.LBE161>:
                            set_motors(kilo_turn_left, 0);
     e2c:	80 91 87 01 	lds	r24, 0x0187	; 0x800187 <kilo_turn_left>

00000e30 <.LBB162>:
    OCR2A = ccw;
     e30:	80 93 b3 00 	sts	0x00B3, r24	; 0x8000b3 <__DATA_REGION_ORIGIN__+0x53>

00000e34 <.Loc.698>:
    OCR2B = cw;
     e34:	10 92 b4 00 	sts	0x00B4, r1	; 0x8000b4 <__DATA_REGION_ORIGIN__+0x54>

00000e38 <.Loc.700>:
}
     e38:	29 cf       	rjmp	.-430    	; 0xc8c <.L95>

00000e3a <.L112>:
                        } else if (cur_motion == MOVE_RIGHT) {
     e3a:	80 91 14 01 	lds	r24, 0x0114	; 0x800114 <cur_motion>

00000e3e <.LBB164>:
    OCR2A = ccw;
     e3e:	10 92 b3 00 	sts	0x00B3, r1	; 0x8000b3 <__DATA_REGION_ORIGIN__+0x53>

00000e42 <.Loc.705>:
    OCR2B = cw;
     e42:	c0 93 b4 00 	sts	0x00B4, r28	; 0x8000b4 <__DATA_REGION_ORIGIN__+0x54>

00000e46 <.LBE164>:
                        } else if (cur_motion == MOVE_RIGHT) {
     e46:	82 30       	cpi	r24, 0x02	; 2
     e48:	69 f4       	brne	.+26     	; 0xe64 <.L113>

00000e4a <.LBB167>:
     e4a:	ef e2       	ldi	r30, 0x2F	; 47
     e4c:	f5 e7       	ldi	r31, 0x75	; 117

00000e4e <.L1^B11>:
     e4e:	31 97       	sbiw	r30, 0x01	; 1
     e50:	f1 f7       	brne	.-4      	; 0xe4e <.L1^B11>
     e52:	00 c0       	rjmp	.+0      	; 0xe54 <L0^A>

00000e54 <L0^A>:
	...

00000e56 <.LBE171>:
                            set_motors(0, kilo_turn_right);
     e56:	80 91 73 01 	lds	r24, 0x0173	; 0x800173 <kilo_turn_right>

00000e5a <.LBB172>:
    OCR2A = ccw;
     e5a:	10 92 b3 00 	sts	0x00B3, r1	; 0x8000b3 <__DATA_REGION_ORIGIN__+0x53>

00000e5e <.L118>:
    OCR2B = cw;
     e5e:	80 93 b4 00 	sts	0x00B4, r24	; 0x8000b4 <__DATA_REGION_ORIGIN__+0x54>

00000e62 <.Loc.731>:
}
     e62:	14 cf       	rjmp	.-472    	; 0xc8c <.L95>

00000e64 <.L113>:
    OCR2A = ccw;
     e64:	c0 93 b3 00 	sts	0x00B3, r28	; 0x8000b3 <__DATA_REGION_ORIGIN__+0x53>

00000e68 <.Loc.740>:
    OCR2B = cw;
     e68:	c0 93 b4 00 	sts	0x00B4, r28	; 0x8000b4 <__DATA_REGION_ORIGIN__+0x54>

00000e6c <.LBB180>:
     e6c:	8f e2       	ldi	r24, 0x2F	; 47
     e6e:	95 e7       	ldi	r25, 0x75	; 117

00000e70 <.L1^B12>:
     e70:	01 97       	sbiw	r24, 0x01	; 1
     e72:	f1 f7       	brne	.-4      	; 0xe70 <.L1^B12>
     e74:	00 c0       	rjmp	.+0      	; 0xe76 <L0^A>

00000e76 <L0^A>:
	...

00000e78 <.LBE183>:
                            set_motors(kilo_straight_left, kilo_straight_right);
     e78:	80 91 86 01 	lds	r24, 0x0186	; 0x800186 <kilo_straight_right>
     e7c:	90 91 85 01 	lds	r25, 0x0185	; 0x800185 <kilo_straight_left>

00000e80 <.LBB184>:
    OCR2A = ccw;
     e80:	90 93 b3 00 	sts	0x00B3, r25	; 0x8000b3 <__DATA_REGION_ORIGIN__+0x53>
     e84:	ec cf       	rjmp	.-40     	; 0xe5e <.L118>

00000e86 <__vector_11>:

/**
 * Timer1 interrupt.
 * Timeout which is trigerred if stop bit is not received.
 */
ISR(TIMER1_COMPA_vect) {
     e86:	8f 93       	push	r24
     e88:	1f 92       	push	r1
     e8a:	80 e0       	ldi	r24, 0x00	; 0
     e8c:	18 2e       	mov	r1, r24
     e8e:	9f 93       	push	r25

00000e90 <.LCFI42>:
    rx_timer_off();
     e90:	10 92 81 00 	sts	0x0081, r1	; 0x800081 <__DATA_REGION_ORIGIN__+0x21>

00000e94 <.Loc.760>:
     e94:	10 92 85 00 	sts	0x0085, r1	; 0x800085 <__DATA_REGION_ORIGIN__+0x25>
     e98:	10 92 84 00 	sts	0x0084, r1	; 0x800084 <__DATA_REGION_ORIGIN__+0x24>

00000e9c <.Loc.761>:
    rx_leadingbit = 1;
     e9c:	81 e0       	ldi	r24, 0x01	; 1
     e9e:	80 93 2a 01 	sts	0x012A, r24	; 0x80012a <rx_leadingbit>

00000ea2 <.Loc.764>:
    rx_leadingbyte = 1;
     ea2:	80 93 6e 01 	sts	0x016E, r24	; 0x80016e <rx_leadingbyte>

00000ea6 <.Loc.766>:
    rx_busy = 0;
     ea6:	10 92 51 01 	sts	0x0151, r1	; 0x800151 <rx_busy>

00000eaa <.Loc.768>:
    adc_trigger_high_gain();
     eaa:	10 92 7c 00 	sts	0x007C, r1	; 0x80007c <__DATA_REGION_ORIGIN__+0x1c>

00000eae <.Loc.769>:
     eae:	93 ea       	ldi	r25, 0xA3	; 163
     eb0:	90 93 7a 00 	sts	0x007A, r25	; 0x80007a <__DATA_REGION_ORIGIN__+0x1a>

00000eb4 <.Loc.770>:
     eb4:	80 93 7b 00 	sts	0x007B, r24	; 0x80007b <__DATA_REGION_ORIGIN__+0x1b>

00000eb8 <.Loc.771>:
}
     eb8:	9f 91       	pop	r25
     eba:	1f 90       	pop	r1
     ebc:	8f 91       	pop	r24
     ebe:	18 95       	reti

00000ec0 <__vector_23>:

/**
 * Analog comparator trigger interrupt.
 * Triggerred for incoming IR pulses (i.e. individual bits).
 */
ISR(ANALOG_COMP_vect) {
     ec0:	1f 92       	push	r1

00000ec2 <.LCFI43>:
     ec2:	0f 92       	push	r0

00000ec4 <.LCFI44>:
     ec4:	0f b6       	in	r0, 0x3f	; 63
     ec6:	0f 92       	push	r0
     ec8:	11 24       	eor	r1, r1
     eca:	0f 93       	push	r16

00000ecc <.LCFI45>:
     ecc:	1f 93       	push	r17

00000ece <.LCFI46>:
     ece:	2f 93       	push	r18

00000ed0 <.LCFI47>:
     ed0:	3f 93       	push	r19

00000ed2 <.LCFI48>:
     ed2:	4f 93       	push	r20

00000ed4 <.LCFI49>:
     ed4:	5f 93       	push	r21

00000ed6 <.LCFI50>:
     ed6:	6f 93       	push	r22

00000ed8 <.LCFI51>:
     ed8:	7f 93       	push	r23

00000eda <.LCFI52>:
     eda:	8f 93       	push	r24

00000edc <.LCFI53>:
     edc:	9f 93       	push	r25

00000ede <.LCFI54>:
     ede:	af 93       	push	r26

00000ee0 <.LCFI55>:
     ee0:	bf 93       	push	r27

00000ee2 <.LCFI56>:
     ee2:	ef 93       	push	r30

00000ee4 <.LCFI57>:
     ee4:	ff 93       	push	r31

00000ee6 <.LCFI58>:
     ee6:	cf 93       	push	r28

00000ee8 <.LCFI59>:
     ee8:	df 93       	push	r29

00000eea <.LCFI60>:
     eea:	00 d0       	rcall	.+0      	; 0xeec <L0^A>

00000eec <L0^A>:
     eec:	00 d0       	rcall	.+0      	; 0xeee <L0^A>

00000eee <L0^A>:
     eee:	cd b7       	in	r28, 0x3d	; 61
     ef0:	de b7       	in	r29, 0x3e	; 62

00000ef2 <.LCFI62>:
    uint16_t timer = TCNT1;
     ef2:	20 91 84 00 	lds	r18, 0x0084	; 0x800084 <__DATA_REGION_ORIGIN__+0x24>
     ef6:	30 91 85 00 	lds	r19, 0x0085	; 0x800085 <__DATA_REGION_ORIGIN__+0x25>

00000efa <.LVL163>:

    rx_busy = 1;
     efa:	41 e0       	ldi	r20, 0x01	; 1
     efc:	40 93 51 01 	sts	0x0151, r20	; 0x800151 <rx_busy>

00000f00 <.Loc.778>:
    /* adc_trigger_stop(); */

    if(rx_leadingbit) {       // Start bit received.
     f00:	80 91 2a 01 	lds	r24, 0x012A	; 0x80012a <rx_leadingbit>
     f04:	88 23       	and	r24, r24
     f06:	d9 f1       	breq	.+118    	; 0xf7e <.L123>

00000f08 <.Loc.780>:
        rx_timer_on();
     f08:	10 92 85 00 	sts	0x0085, r1	; 0x800085 <__DATA_REGION_ORIGIN__+0x25>
     f0c:	10 92 84 00 	sts	0x0084, r1	; 0x800084 <__DATA_REGION_ORIGIN__+0x24>

00000f10 <.Loc.781>:
     f10:	40 93 81 00 	sts	0x0081, r20	; 0x800081 <__DATA_REGION_ORIGIN__+0x21>

00000f14 <.Loc.782>:
        rx_bytevalue = 0;
     f14:	10 92 82 01 	sts	0x0182, r1	; 0x800182 <rx_bytevalue>

00000f18 <.Loc.785>:
        rx_leadingbit = 0;
     f18:	10 92 2a 01 	sts	0x012A, r1	; 0x80012a <rx_leadingbit>

00000f1c <.Loc.787>:
        if (rx_leadingbyte) {
     f1c:	80 91 6e 01 	lds	r24, 0x016E	; 0x80016e <rx_leadingbyte>
     f20:	88 23       	and	r24, r24
     f22:	a1 f0       	breq	.+40     	; 0xf4c <.L122>

00000f24 <.L124>:
            adc_finish_conversion();
     f24:	80 91 7a 00 	lds	r24, 0x007A	; 0x80007a <__DATA_REGION_ORIGIN__+0x1a>
     f28:	86 fd       	sbrc	r24, 6
     f2a:	fc cf       	rjmp	.-8      	; 0xf24 <.L124>

00000f2c <.Loc.791>:
            rx_dist.high_gain = ADCW;
     f2c:	80 91 78 00 	lds	r24, 0x0078	; 0x800078 <__DATA_REGION_ORIGIN__+0x18>
     f30:	90 91 79 00 	lds	r25, 0x0079	; 0x800079 <__DATA_REGION_ORIGIN__+0x19>

00000f34 <.Loc.793>:
     f34:	90 93 4c 01 	sts	0x014C, r25	; 0x80014c <rx_dist+0x3>
     f38:	80 93 4b 01 	sts	0x014B, r24	; 0x80014b <rx_dist+0x2>

00000f3c <.Loc.794>:
            adc_trigger_low_gain();
     f3c:	81 e0       	ldi	r24, 0x01	; 1
     f3e:	80 93 7c 00 	sts	0x007C, r24	; 0x80007c <__DATA_REGION_ORIGIN__+0x1c>

00000f42 <.Loc.795>:
     f42:	93 ea       	ldi	r25, 0xA3	; 163
     f44:	90 93 7a 00 	sts	0x007A, r25	; 0x80007a <__DATA_REGION_ORIGIN__+0x1a>

00000f48 <.Loc.796>:
     f48:	80 93 7b 00 	sts	0x007B, r24	; 0x80007b <__DATA_REGION_ORIGIN__+0x1b>

00000f4c <.L122>:
                    }
                }
            }
        }
    }
}
     f4c:	0f 90       	pop	r0
     f4e:	0f 90       	pop	r0
     f50:	0f 90       	pop	r0
     f52:	0f 90       	pop	r0
     f54:	df 91       	pop	r29
     f56:	cf 91       	pop	r28
     f58:	ff 91       	pop	r31
     f5a:	ef 91       	pop	r30
     f5c:	bf 91       	pop	r27
     f5e:	af 91       	pop	r26
     f60:	9f 91       	pop	r25
     f62:	8f 91       	pop	r24
     f64:	7f 91       	pop	r23
     f66:	6f 91       	pop	r22
     f68:	5f 91       	pop	r21
     f6a:	4f 91       	pop	r20
     f6c:	3f 91       	pop	r19
     f6e:	2f 91       	pop	r18
     f70:	1f 91       	pop	r17
     f72:	0f 91       	pop	r16
     f74:	0f 90       	pop	r0
     f76:	0f be       	out	0x3f, r0	; 63
     f78:	0f 90       	pop	r0
     f7a:	1f 90       	pop	r1
     f7c:	18 95       	reti

00000f7e <.L123>:
        if (timer <= rx_bitcycles/2 || timer >= rx_bitcycles*9+rx_bitcycles/2) {
     f7e:	c9 01       	movw	r24, r18
     f80:	87 58       	subi	r24, 0x87	; 135
     f82:	91 09       	sbc	r25, r1

00000f84 <.Loc.800>:
     f84:	84 37       	cpi	r24, 0x74	; 116
     f86:	99 40       	sbci	r25, 0x09	; 9
     f88:	a0 f0       	brcs	.+40     	; 0xfb2 <.L126>

00000f8a <.Loc.801>:
            rx_timer_off();
     f8a:	10 92 81 00 	sts	0x0081, r1	; 0x800081 <__DATA_REGION_ORIGIN__+0x21>

00000f8e <.Loc.802>:
     f8e:	10 92 85 00 	sts	0x0085, r1	; 0x800085 <__DATA_REGION_ORIGIN__+0x25>
     f92:	10 92 84 00 	sts	0x0084, r1	; 0x800084 <__DATA_REGION_ORIGIN__+0x24>

00000f96 <.Loc.803>:
            rx_leadingbit = 1;
     f96:	40 93 2a 01 	sts	0x012A, r20	; 0x80012a <rx_leadingbit>

00000f9a <.Loc.806>:
            rx_leadingbyte = 1;
     f9a:	40 93 6e 01 	sts	0x016E, r20	; 0x80016e <rx_leadingbyte>

00000f9e <.Loc.808>:
            rx_busy = 0;
     f9e:	10 92 51 01 	sts	0x0151, r1	; 0x800151 <rx_busy>

00000fa2 <.Loc.810>:
            adc_trigger_high_gain();
     fa2:	10 92 7c 00 	sts	0x007C, r1	; 0x80007c <__DATA_REGION_ORIGIN__+0x1c>

00000fa6 <.Loc.811>:
     fa6:	83 ea       	ldi	r24, 0xA3	; 163
     fa8:	80 93 7a 00 	sts	0x007A, r24	; 0x80007a <__DATA_REGION_ORIGIN__+0x1a>

00000fac <.Loc.812>:
     fac:	40 93 7b 00 	sts	0x007B, r20	; 0x80007b <__DATA_REGION_ORIGIN__+0x1b>

00000fb0 <.Loc.813>:
     fb0:	cd cf       	rjmp	.-102    	; 0xf4c <.L122>

00000fb2 <.L126>:
            uint8_t bitindex = ((uint32_t)(timer-rx_bitcycles/2)*M)>>16;
     fb2:	26 58       	subi	r18, 0x86	; 134
     fb4:	31 09       	sbc	r19, r1

00000fb6 <.LVL167>:
     fb6:	a4 ef       	ldi	r26, 0xF4	; 244
     fb8:	b0 e0       	ldi	r27, 0x00	; 0
     fba:	0e 94 33 0a 	call	0x1466	; 0x1466 <__umulhisi3>
     fbe:	69 83       	std	Y+1, r22	; 0x01
     fc0:	7a 83       	std	Y+2, r23	; 0x02
     fc2:	8b 83       	std	Y+3, r24	; 0x03
     fc4:	9c 83       	std	Y+4, r25	; 0x04

00000fc6 <.Loc.818>:
     fc6:	8c 01       	movw	r16, r24
     fc8:	22 27       	eor	r18, r18
     fca:	33 27       	eor	r19, r19

00000fcc <.LVL168>:
            if (bitindex <= 7) { // Data bit received.
     fcc:	88 30       	cpi	r24, 0x08	; 8
     fce:	68 f4       	brcc	.+26     	; 0xfea <.L127>

00000fd0 <.Loc.821>:
                rx_bytevalue |= (1<<bitindex);
     fd0:	81 e0       	ldi	r24, 0x01	; 1
     fd2:	90 e0       	ldi	r25, 0x00	; 0

00000fd4 <.LVL169>:
     fd4:	9c 01       	movw	r18, r24
     fd6:	01 c0       	rjmp	.+2      	; 0xfda <.L2^B2>

00000fd8 <.L1^B13>:
     fd8:	22 0f       	add	r18, r18

00000fda <.L2^B2>:
     fda:	0a 95       	dec	r16
     fdc:	ea f7       	brpl	.-6      	; 0xfd8 <.L1^B13>

00000fde <.Loc.824>:
     fde:	80 91 82 01 	lds	r24, 0x0182	; 0x800182 <rx_bytevalue>
     fe2:	82 2b       	or	r24, r18
     fe4:	80 93 82 01 	sts	0x0182, r24	; 0x800182 <rx_bytevalue>
     fe8:	b1 cf       	rjmp	.-158    	; 0xf4c <.L122>

00000fea <.L127>:
                rx_leadingbit = 1;
     fea:	40 93 2a 01 	sts	0x012A, r20	; 0x80012a <rx_leadingbit>

00000fee <.Loc.827>:
                if (rx_leadingbyte) {
     fee:	80 91 6e 01 	lds	r24, 0x016E	; 0x80016e <rx_leadingbyte>

00000ff2 <.LVL171>:
     ff2:	88 23       	and	r24, r24
     ff4:	41 f1       	breq	.+80     	; 0x1046 <.L128>

00000ff6 <.L129>:
                    adc_finish_conversion();
     ff6:	80 91 7a 00 	lds	r24, 0x007A	; 0x80007a <__DATA_REGION_ORIGIN__+0x1a>
     ffa:	86 fd       	sbrc	r24, 6
     ffc:	fc cf       	rjmp	.-8      	; 0xff6 <.L129>

00000ffe <.Loc.832>:
                    rx_dist.low_gain = ADCW;
     ffe:	80 91 78 00 	lds	r24, 0x0078	; 0x800078 <__DATA_REGION_ORIGIN__+0x18>
    1002:	90 91 79 00 	lds	r25, 0x0079	; 0x800079 <__DATA_REGION_ORIGIN__+0x19>

00001006 <.Loc.834>:
    1006:	90 93 4a 01 	sts	0x014A, r25	; 0x80014a <rx_dist+0x1>
    100a:	80 93 49 01 	sts	0x0149, r24	; 0x800149 <rx_dist>

0000100e <.Loc.835>:
                    adc_trigger_high_gain();
    100e:	10 92 7c 00 	sts	0x007C, r1	; 0x80007c <__DATA_REGION_ORIGIN__+0x1c>

00001012 <.Loc.836>:
    1012:	83 ea       	ldi	r24, 0xA3	; 163
    1014:	80 93 7a 00 	sts	0x007A, r24	; 0x80007a <__DATA_REGION_ORIGIN__+0x1a>

00001018 <.Loc.837>:
    1018:	81 e0       	ldi	r24, 0x01	; 1
    101a:	80 93 7b 00 	sts	0x007B, r24	; 0x80007b <__DATA_REGION_ORIGIN__+0x1b>

0000101e <.Loc.838>:
                    if (rx_bytevalue != 0) { // Collision detected.
    101e:	90 91 82 01 	lds	r25, 0x0182	; 0x800182 <rx_bytevalue>
    1022:	99 23       	and	r25, r25
    1024:	59 f0       	breq	.+22     	; 0x103c <.L130>

00001026 <.Loc.841>:
                        rx_timer_off();
    1026:	10 92 81 00 	sts	0x0081, r1	; 0x800081 <__DATA_REGION_ORIGIN__+0x21>

0000102a <.Loc.842>:
    102a:	10 92 85 00 	sts	0x0085, r1	; 0x800085 <__DATA_REGION_ORIGIN__+0x25>
    102e:	10 92 84 00 	sts	0x0084, r1	; 0x800084 <__DATA_REGION_ORIGIN__+0x24>

00001032 <.Loc.843>:
                        rx_leadingbyte = 1;
    1032:	80 93 6e 01 	sts	0x016E, r24	; 0x80016e <rx_leadingbyte>

00001036 <.Loc.846>:
                        rx_busy = 0;
    1036:	10 92 51 01 	sts	0x0151, r1	; 0x800151 <rx_busy>
    103a:	88 cf       	rjmp	.-240    	; 0xf4c <.L122>

0000103c <.L130>:
                        rx_leadingbyte = 0;
    103c:	10 92 6e 01 	sts	0x016E, r1	; 0x80016e <rx_leadingbyte>

00001040 <.Loc.850>:
                        rx_byteindex = 0;
    1040:	10 92 48 01 	sts	0x0148, r1	; 0x800148 <rx_byteindex>
    1044:	83 cf       	rjmp	.-250    	; 0xf4c <.L122>

00001046 <.L128>:
                    rawmsg[rx_byteindex] = rx_bytevalue;
    1046:	80 91 48 01 	lds	r24, 0x0148	; 0x800148 <rx_byteindex>
    104a:	e8 2f       	mov	r30, r24
    104c:	f0 e0       	ldi	r31, 0x00	; 0

0000104e <.Loc.854>:
    104e:	ec 58       	subi	r30, 0x8C	; 140
    1050:	fe 4f       	sbci	r31, 0xFE	; 254
    1052:	90 91 82 01 	lds	r25, 0x0182	; 0x800182 <rx_bytevalue>
    1056:	90 83       	st	Z, r25

00001058 <.Loc.855>:
                    rx_byteindex++;
    1058:	8f 5f       	subi	r24, 0xFF	; 255
    105a:	80 93 48 01 	sts	0x0148, r24	; 0x800148 <rx_byteindex>

0000105e <.Loc.857>:
                    if (rx_byteindex == sizeof(message_t)) {
    105e:	8c 30       	cpi	r24, 0x0C	; 12
    1060:	09 f0       	breq	.+2      	; 0x1064 <.Loc.859>

00001062 <L0^A>:
    1062:	74 cf       	rjmp	.-280    	; 0xf4c <.L122>

00001064 <.Loc.859>:
                        rx_timer_off();
    1064:	10 92 81 00 	sts	0x0081, r1	; 0x800081 <__DATA_REGION_ORIGIN__+0x21>

00001068 <.Loc.860>:
    1068:	10 92 85 00 	sts	0x0085, r1	; 0x800085 <__DATA_REGION_ORIGIN__+0x25>
    106c:	10 92 84 00 	sts	0x0084, r1	; 0x800084 <__DATA_REGION_ORIGIN__+0x24>

00001070 <.Loc.861>:
                        rx_leadingbyte = 1;
    1070:	40 93 6e 01 	sts	0x016E, r20	; 0x80016e <rx_leadingbyte>

00001074 <.Loc.864>:
                        rx_busy = 0;
    1074:	10 92 51 01 	sts	0x0151, r1	; 0x800151 <rx_busy>

00001078 <.Loc.866>:
                        if (rx_msg.crc == message_crc(&rx_msg))
    1078:	80 91 7e 01 	lds	r24, 0x017E	; 0x80017e <rx_msg+0xa>
    107c:	90 91 7f 01 	lds	r25, 0x017F	; 0x80017f <rx_msg+0xb>
    1080:	9a 83       	std	Y+2, r25	; 0x02
    1082:	89 83       	std	Y+1, r24	; 0x01

00001084 <.Loc.868>:
    1084:	84 e7       	ldi	r24, 0x74	; 116
    1086:	91 e0       	ldi	r25, 0x01	; 1
    1088:	0e 94 5d 09 	call	0x12ba	; 0x12ba <message_crc>

0000108c <.LVL172>:
    108c:	a9 81       	ldd	r26, Y+1	; 0x01
    108e:	ba 81       	ldd	r27, Y+2	; 0x02
    1090:	a8 17       	cp	r26, r24
    1092:	b9 07       	cpc	r27, r25
    1094:	09 f0       	breq	.+2      	; 0x1098 <.LBB189>

00001096 <L0^A>:
    1096:	5a cf       	rjmp	.-332    	; 0xf4c <.L122>

00001098 <.LBB189>:
    if (rx_msg.type < BOOT) {
    1098:	e0 91 7d 01 	lds	r30, 0x017D	; 0x80017d <rx_msg+0x9>

0000109c <.Loc.876>:
    109c:	e7 fd       	sbrc	r30, 7
    109e:	0a c0       	rjmp	.+20     	; 0x10b4 <.L132>

000010a0 <.Loc.877>:
        kilo_message_rx(&rx_msg, &rx_dist);
    10a0:	e0 91 08 01 	lds	r30, 0x0108	; 0x800108 <kilo_message_rx>
    10a4:	f0 91 09 01 	lds	r31, 0x0109	; 0x800109 <kilo_message_rx+0x1>
    10a8:	69 e4       	ldi	r22, 0x49	; 73
    10aa:	71 e0       	ldi	r23, 0x01	; 1
    10ac:	84 e7       	ldi	r24, 0x74	; 116
    10ae:	91 e0       	ldi	r25, 0x01	; 1
    10b0:	09 95       	icall

000010b2 <.LVL174>:
        return;
    10b2:	4c cf       	rjmp	.-360    	; 0xf4c <.L122>

000010b4 <.L132>:
    if (rx_msg.type != READUID && rx_msg.type != RUN && rx_msg.type != CALIB)
    10b4:	88 e7       	ldi	r24, 0x78	; 120
    10b6:	8e 0f       	add	r24, r30

000010b8 <.Loc.881>:
    10b8:	83 30       	cpi	r24, 0x03	; 3
    10ba:	30 f0       	brcs	.+12     	; 0x10c8 <.L133>

000010bc <.Loc.882>:
        motors_off();
    10bc:	53 98       	cbi	0x0a, 3	; 10

000010be <.Loc.883>:
    10be:	23 98       	cbi	0x04, 3	; 4

000010c0 <.Loc.884>:
    10c0:	10 92 b4 00 	sts	0x00B4, r1	; 0x8000b4 <__DATA_REGION_ORIGIN__+0x54>

000010c4 <.Loc.885>:
    10c4:	10 92 b3 00 	sts	0x00B3, r1	; 0x8000b3 <__DATA_REGION_ORIGIN__+0x53>

000010c8 <.L133>:
    switch (rx_msg.type) {
    10c8:	e0 58       	subi	r30, 0x80	; 128
    10ca:	eb 30       	cpi	r30, 0x0B	; 11
    10cc:	08 f0       	brcs	.+2      	; 0x10d0 <L0^A+0x2>

000010ce <L0^A>:
    10ce:	3e cf       	rjmp	.-388    	; 0xf4c <.L122>
    10d0:	f0 e0       	ldi	r31, 0x00	; 0
    10d2:	ef 5a       	subi	r30, 0xAF	; 175
    10d4:	f2 4f       	sbci	r31, 0xF2	; 242
    10d6:	0c 94 2d 0a 	jmp	0x145a	; 0x145a <__tablejump2__>

000010da <.L143>:
            tx_timer_off();
    10da:	80 91 6e 00 	lds	r24, 0x006E	; 0x80006e <__DATA_REGION_ORIGIN__+0xe>
    10de:	8d 7f       	andi	r24, 0xFD	; 253
    10e0:	80 93 6e 00 	sts	0x006E, r24	; 0x80006e <__DATA_REGION_ORIGIN__+0xe>

000010e4 <.Loc.889>:
    10e4:	16 bc       	out	0x26, r1	; 38

000010e6 <.Loc.890>:
            bootload();
    10e6:	e0 e0       	ldi	r30, 0x00	; 0
    10e8:	f0 e7       	ldi	r31, 0x70	; 112

000010ea <.L176>:
            reset();
    10ea:	09 95       	icall

000010ec <.L142>:
    10ec:	f0 e0       	ldi	r31, 0x00	; 0
    10ee:	e0 e0       	ldi	r30, 0x00	; 0
    10f0:	fc cf       	rjmp	.-8      	; 0x10ea <.L176>

000010f2 <.L141>:
            kilo_state = SLEEPING;
    10f2:	10 92 16 01 	sts	0x0116, r1	; 0x800116 <kilo_state>

000010f6 <.Loc.898>:
            break;
    10f6:	2a cf       	rjmp	.-428    	; 0xf4c <.L122>

000010f8 <.L140>:
            kilo_state = IDLE;
    10f8:	81 e0       	ldi	r24, 0x01	; 1

000010fa <.L175>:
                kilo_state = MOVING;
    10fa:	80 93 16 01 	sts	0x0116, r24	; 0x800116 <kilo_state>
    10fe:	26 cf       	rjmp	.-436    	; 0xf4c <.L122>

00001100 <.L139>:
            kilo_state = CHARGING;
    1100:	85 e0       	ldi	r24, 0x05	; 5
    1102:	fb cf       	rjmp	.-10     	; 0x10fa <.L175>

00001104 <.L138>:
            kilo_state = BATTERY;
    1104:	82 e0       	ldi	r24, 0x02	; 2
    1106:	f9 cf       	rjmp	.-14     	; 0x10fa <.L175>

00001108 <.L137>:
            if (kilo_state != SETUP && kilo_state != RUNNING) {
    1108:	80 91 16 01 	lds	r24, 0x0116	; 0x800116 <kilo_state>

0000110c <.Loc.908>:
    110c:	83 30       	cpi	r24, 0x03	; 3
    110e:	09 f4       	brne	.+2      	; 0x1112 <.Loc.909>

00001110 <L0^A>:
    1110:	1d cf       	rjmp	.-454    	; 0xf4c <.L122>

00001112 <.Loc.909>:
    1112:	80 91 16 01 	lds	r24, 0x0116	; 0x800116 <kilo_state>

00001116 <.Loc.910>:
    1116:	84 30       	cpi	r24, 0x04	; 4
    1118:	09 f4       	brne	.+2      	; 0x111c <.Loc.911>

0000111a <L0^A>:
    111a:	18 cf       	rjmp	.-464    	; 0xf4c <.L122>

0000111c <.Loc.911>:
                motors_on();
    111c:	53 9a       	sbi	0x0a, 3	; 10

0000111e <.Loc.912>:
    111e:	23 9a       	sbi	0x04, 3	; 4

00001120 <.Loc.913>:
    1120:	10 92 b4 00 	sts	0x00B4, r1	; 0x8000b4 <__DATA_REGION_ORIGIN__+0x54>

00001124 <.Loc.914>:
    1124:	10 92 b3 00 	sts	0x00B3, r1	; 0x8000b3 <__DATA_REGION_ORIGIN__+0x53>

00001128 <.Loc.915>:
                kilo_state = SETUP;
    1128:	83 e0       	ldi	r24, 0x03	; 3
    112a:	e7 cf       	rjmp	.-50     	; 0x10fa <.L175>

0000112c <.L134>:
            switch(calibmsg->mode) {
    112c:	80 91 74 01 	lds	r24, 0x0174	; 0x800174 <rx_msg>
    1130:	82 30       	cpi	r24, 0x02	; 2
    1132:	09 f4       	brne	.+2      	; 0x1136 <L0^A+0x2>

00001134 <L0^A>:
    1134:	57 c0       	rjmp	.+174    	; 0x11e4 <.L144>
    1136:	a0 f5       	brcc	.+104    	; 0x11a0 <.L145>
    1138:	81 11       	cpse	r24, r1
    113a:	49 c0       	rjmp	.+146    	; 0x11ce <.L174>

0000113c <.Loc.920>:
                    if (kilo_state == MOVING) {
    113c:	80 91 16 01 	lds	r24, 0x0116	; 0x800116 <kilo_state>

00001140 <.Loc.922>:
    1140:	86 30       	cpi	r24, 0x06	; 6
    1142:	99 f5       	brne	.+102    	; 0x11aa <.L150>

00001144 <.Loc.923>:
                        eeprom_write_byte(EEPROM_UID, kilo_uid&0xFF);
    1144:	60 91 83 01 	lds	r22, 0x0183	; 0x800183 <kilo_uid>
    1148:	80 eb       	ldi	r24, 0xB0	; 176
    114a:	90 e0       	ldi	r25, 0x00	; 0
    114c:	0e 94 e6 0c 	call	0x19cc	; 0x19cc <eeprom_write_byte>

00001150 <.LVL176>:
                        eeprom_write_byte(EEPROM_UID+1, (kilo_uid>>8)&0xFF);
    1150:	60 91 84 01 	lds	r22, 0x0184	; 0x800184 <kilo_uid+0x1>

00001154 <.Loc.926>:
    1154:	81 eb       	ldi	r24, 0xB1	; 177
    1156:	90 e0       	ldi	r25, 0x00	; 0
    1158:	0e 94 e6 0c 	call	0x19cc	; 0x19cc <eeprom_write_byte>

0000115c <.LVL177>:
                        eeprom_write_byte(EEPROM_LEFT_ROTATE, kilo_turn_left);
    115c:	60 91 87 01 	lds	r22, 0x0187	; 0x800187 <kilo_turn_left>
    1160:	85 e0       	ldi	r24, 0x05	; 5
    1162:	90 e0       	ldi	r25, 0x00	; 0
    1164:	0e 94 e6 0c 	call	0x19cc	; 0x19cc <eeprom_write_byte>

00001168 <.LVL178>:
                        eeprom_write_byte(EEPROM_RIGHT_ROTATE, kilo_turn_right);
    1168:	60 91 73 01 	lds	r22, 0x0173	; 0x800173 <kilo_turn_right>
    116c:	89 e0       	ldi	r24, 0x09	; 9
    116e:	90 e0       	ldi	r25, 0x00	; 0
    1170:	0e 94 e6 0c 	call	0x19cc	; 0x19cc <eeprom_write_byte>

00001174 <.LVL179>:
                        eeprom_write_byte(EEPROM_LEFT_STRAIGHT, kilo_straight_left);
    1174:	60 91 85 01 	lds	r22, 0x0185	; 0x800185 <kilo_straight_left>
    1178:	8c e0       	ldi	r24, 0x0C	; 12
    117a:	90 e0       	ldi	r25, 0x00	; 0
    117c:	0e 94 e6 0c 	call	0x19cc	; 0x19cc <eeprom_write_byte>

00001180 <.LVL180>:
                        eeprom_write_byte(EEPROM_RIGHT_STRAIGHT, kilo_straight_right);
    1180:	60 91 86 01 	lds	r22, 0x0186	; 0x800186 <kilo_straight_right>
    1184:	84 e1       	ldi	r24, 0x14	; 20
    1186:	90 e0       	ldi	r25, 0x00	; 0
    1188:	0e 94 e6 0c 	call	0x19cc	; 0x19cc <eeprom_write_byte>

0000118c <.LVL181>:
                        motors_off();
    118c:	53 98       	cbi	0x0a, 3	; 10

0000118e <.Loc.932>:
    118e:	23 98       	cbi	0x04, 3	; 4

00001190 <.Loc.933>:
    1190:	10 92 b4 00 	sts	0x00B4, r1	; 0x8000b4 <__DATA_REGION_ORIGIN__+0x54>

00001194 <.Loc.934>:
    1194:	10 92 b3 00 	sts	0x00B3, r1	; 0x8000b3 <__DATA_REGION_ORIGIN__+0x53>

00001198 <.Loc.935>:
                        kilo_state = IDLE;
    1198:	81 e0       	ldi	r24, 0x01	; 1
    119a:	80 93 16 01 	sts	0x0116, r24	; 0x800116 <kilo_state>
    119e:	05 c0       	rjmp	.+10     	; 0x11aa <.L150>

000011a0 <.L145>:
    11a0:	83 30       	cpi	r24, 0x03	; 3
    11a2:	91 f1       	breq	.+100    	; 0x1208 <.L148>
    11a4:	84 30       	cpi	r24, 0x04	; 4
    11a6:	09 f4       	brne	.+2      	; 0x11aa <.L150>

000011a8 <L0^A>:
    11a8:	41 c0       	rjmp	.+130    	; 0x122c <.L149>

000011aa <.L150>:
            if (calibmsg->mode != CALIB_SAVE && kilo_state != MOVING) {
    11aa:	80 91 74 01 	lds	r24, 0x0174	; 0x800174 <rx_msg>
    11ae:	88 23       	and	r24, r24
    11b0:	09 f4       	brne	.+2      	; 0x11b4 <.Loc.940>

000011b2 <L0^A>:
    11b2:	cc ce       	rjmp	.-616    	; 0xf4c <.L122>

000011b4 <.Loc.940>:
    11b4:	80 91 16 01 	lds	r24, 0x0116	; 0x800116 <kilo_state>

000011b8 <.Loc.941>:
    11b8:	86 30       	cpi	r24, 0x06	; 6
    11ba:	09 f4       	brne	.+2      	; 0x11be <.Loc.942>

000011bc <L0^A>:
    11bc:	c7 ce       	rjmp	.-626    	; 0xf4c <.L122>

000011be <.Loc.942>:
                motors_on();
    11be:	53 9a       	sbi	0x0a, 3	; 10

000011c0 <.Loc.943>:
    11c0:	23 9a       	sbi	0x04, 3	; 4

000011c2 <.Loc.944>:
    11c2:	10 92 b4 00 	sts	0x00B4, r1	; 0x8000b4 <__DATA_REGION_ORIGIN__+0x54>

000011c6 <.Loc.945>:
    11c6:	10 92 b3 00 	sts	0x00B3, r1	; 0x8000b3 <__DATA_REGION_ORIGIN__+0x53>

000011ca <.Loc.946>:
                kilo_state = MOVING;
    11ca:	86 e0       	ldi	r24, 0x06	; 6
    11cc:	96 cf       	rjmp	.-212    	; 0x10fa <.L175>

000011ce <.L174>:
                    kilo_uid = calibmsg->uid;
    11ce:	80 91 75 01 	lds	r24, 0x0175	; 0x800175 <rx_msg+0x1>
    11d2:	90 91 76 01 	lds	r25, 0x0176	; 0x800176 <rx_msg+0x2>
    11d6:	90 93 84 01 	sts	0x0184, r25	; 0x800184 <kilo_uid+0x1>
    11da:	80 93 83 01 	sts	0x0183, r24	; 0x800183 <kilo_uid>

000011de <.Loc.951>:
                    cur_motion = MOVE_STOP;
    11de:	10 92 14 01 	sts	0x0114, r1	; 0x800114 <cur_motion>

000011e2 <.Loc.953>:
                    break;
    11e2:	e3 cf       	rjmp	.-58     	; 0x11aa <.L150>

000011e4 <.L144>:
                    if (cur_motion != MOVE_LEFT || kilo_turn_left != calibmsg->turn_left) {
    11e4:	90 91 14 01 	lds	r25, 0x0114	; 0x800114 <cur_motion>
    11e8:	80 91 77 01 	lds	r24, 0x0177	; 0x800177 <rx_msg+0x3>

000011ec <.Loc.956>:
    11ec:	91 30       	cpi	r25, 0x01	; 1
    11ee:	21 f4       	brne	.+8      	; 0x11f8 <.L151>

000011f0 <.Loc.957>:
    11f0:	90 91 87 01 	lds	r25, 0x0187	; 0x800187 <kilo_turn_left>
    11f4:	98 17       	cp	r25, r24
    11f6:	c9 f2       	breq	.-78     	; 0x11aa <.L150>

000011f8 <.L151>:
                        prev_motion = MOVE_STOP;
    11f8:	10 92 15 01 	sts	0x0115, r1	; 0x800115 <prev_motion>

000011fc <.Loc.960>:
                        cur_motion = MOVE_LEFT;
    11fc:	91 e0       	ldi	r25, 0x01	; 1
    11fe:	90 93 14 01 	sts	0x0114, r25	; 0x800114 <cur_motion>

00001202 <.Loc.962>:
                        kilo_turn_left = calibmsg->turn_left;
    1202:	80 93 87 01 	sts	0x0187, r24	; 0x800187 <kilo_turn_left>
    1206:	d1 cf       	rjmp	.-94     	; 0x11aa <.L150>

00001208 <.L148>:
                    if (cur_motion != MOVE_RIGHT || kilo_turn_right != calibmsg->turn_right) {
    1208:	90 91 14 01 	lds	r25, 0x0114	; 0x800114 <cur_motion>
    120c:	80 91 78 01 	lds	r24, 0x0178	; 0x800178 <rx_msg+0x4>

00001210 <.Loc.966>:
    1210:	92 30       	cpi	r25, 0x02	; 2
    1212:	21 f4       	brne	.+8      	; 0x121c <.L152>

00001214 <.Loc.967>:
    1214:	90 91 73 01 	lds	r25, 0x0173	; 0x800173 <kilo_turn_right>
    1218:	98 17       	cp	r25, r24
    121a:	39 f2       	breq	.-114    	; 0x11aa <.L150>

0000121c <.L152>:
                        prev_motion = MOVE_STOP;
    121c:	10 92 15 01 	sts	0x0115, r1	; 0x800115 <prev_motion>

00001220 <.Loc.970>:
                        cur_motion = MOVE_RIGHT;
    1220:	92 e0       	ldi	r25, 0x02	; 2
    1222:	90 93 14 01 	sts	0x0114, r25	; 0x800114 <cur_motion>

00001226 <.Loc.972>:
                        kilo_turn_right = calibmsg->turn_right;
    1226:	80 93 73 01 	sts	0x0173, r24	; 0x800173 <kilo_turn_right>
    122a:	bf cf       	rjmp	.-130    	; 0x11aa <.L150>

0000122c <.L149>:
                    if (cur_motion != MOVE_STRAIGHT || kilo_straight_right != calibmsg->straight_right || kilo_straight_left != calibmsg->straight_left) {
    122c:	20 91 14 01 	lds	r18, 0x0114	; 0x800114 <cur_motion>
    1230:	80 91 7a 01 	lds	r24, 0x017A	; 0x80017a <rx_msg+0x6>
    1234:	90 91 79 01 	lds	r25, 0x0179	; 0x800179 <rx_msg+0x5>

00001238 <.Loc.976>:
    1238:	23 30       	cpi	r18, 0x03	; 3
    123a:	49 f4       	brne	.+18     	; 0x124e <.L153>

0000123c <.Loc.977>:
    123c:	20 91 86 01 	lds	r18, 0x0186	; 0x800186 <kilo_straight_right>
    1240:	28 13       	cpse	r18, r24
    1242:	05 c0       	rjmp	.+10     	; 0x124e <.L153>

00001244 <.Loc.978>:
    1244:	20 91 85 01 	lds	r18, 0x0185	; 0x800185 <kilo_straight_left>
    1248:	29 17       	cp	r18, r25
    124a:	09 f4       	brne	.+2      	; 0x124e <.L153>

0000124c <L0^A>:
    124c:	ae cf       	rjmp	.-164    	; 0x11aa <.L150>

0000124e <.L153>:
                        prev_motion = MOVE_STOP;
    124e:	10 92 15 01 	sts	0x0115, r1	; 0x800115 <prev_motion>

00001252 <.Loc.981>:
                        cur_motion = MOVE_STRAIGHT;
    1252:	23 e0       	ldi	r18, 0x03	; 3
    1254:	20 93 14 01 	sts	0x0114, r18	; 0x800114 <cur_motion>

00001258 <.Loc.983>:
                        kilo_straight_left = calibmsg->straight_left;
    1258:	90 93 85 01 	sts	0x0185, r25	; 0x800185 <kilo_straight_left>

0000125c <.Loc.985>:
                        kilo_straight_right = calibmsg->straight_right;
    125c:	80 93 86 01 	sts	0x0186, r24	; 0x800186 <kilo_straight_right>
    1260:	a4 cf       	rjmp	.-184    	; 0x11aa <.L150>

00001262 <.L136>:
            if (kilo_state != MOVING) {
    1262:	80 91 16 01 	lds	r24, 0x0116	; 0x800116 <kilo_state>

00001266 <.Loc.989>:
    1266:	86 30       	cpi	r24, 0x06	; 6
    1268:	81 f0       	breq	.+32     	; 0x128a <.L154>

0000126a <.Loc.990>:
                motors_on();
    126a:	53 9a       	sbi	0x0a, 3	; 10

0000126c <.Loc.991>:
    126c:	23 9a       	sbi	0x04, 3	; 4

0000126e <.Loc.992>:
    126e:	10 92 b4 00 	sts	0x00B4, r1	; 0x8000b4 <__DATA_REGION_ORIGIN__+0x54>

00001272 <.Loc.993>:
    1272:	10 92 b3 00 	sts	0x00B3, r1	; 0x8000b3 <__DATA_REGION_ORIGIN__+0x53>

00001276 <.Loc.994>:
                set_color(RGB(0,0,0));
    1276:	80 e0       	ldi	r24, 0x00	; 0
    1278:	0e 94 1d 06 	call	0xc3a	; 0xc3a <set_color>

0000127c <.LVL182>:
                prev_motion = cur_motion = MOVE_STOP;
    127c:	10 92 14 01 	sts	0x0114, r1	; 0x800114 <cur_motion>

00001280 <.Loc.998>:
    1280:	10 92 15 01 	sts	0x0115, r1	; 0x800115 <prev_motion>

00001284 <.Loc.1000>:
                kilo_state = MOVING;
    1284:	86 e0       	ldi	r24, 0x06	; 6
    1286:	80 93 16 01 	sts	0x0116, r24	; 0x800116 <kilo_state>

0000128a <.L154>:
            if (kilo_uid&(1<<rx_msg.data[0]))
    128a:	20 91 74 01 	lds	r18, 0x0174	; 0x800174 <rx_msg>

0000128e <.Loc.1003>:
    128e:	81 e0       	ldi	r24, 0x01	; 1
    1290:	90 e0       	ldi	r25, 0x00	; 0
    1292:	02 c0       	rjmp	.+4      	; 0x1298 <.L2^B3>

00001294 <.L1^B14>:
    1294:	88 0f       	add	r24, r24
    1296:	99 1f       	adc	r25, r25

00001298 <.L2^B3>:
    1298:	2a 95       	dec	r18
    129a:	e2 f7       	brpl	.-8      	; 0x1294 <.L1^B14>

0000129c <.Loc.1004>:
    129c:	20 91 83 01 	lds	r18, 0x0183	; 0x800183 <kilo_uid>
    12a0:	30 91 84 01 	lds	r19, 0x0184	; 0x800184 <kilo_uid+0x1>
    12a4:	82 23       	and	r24, r18
    12a6:	93 23       	and	r25, r19

000012a8 <.Loc.1005>:
    12a8:	89 2b       	or	r24, r25
    12aa:	21 f0       	breq	.+8      	; 0x12b4 <.L155>

000012ac <.Loc.1006>:
                cur_motion = MOVE_LEFT;
    12ac:	81 e0       	ldi	r24, 0x01	; 1
    12ae:	80 93 14 01 	sts	0x0114, r24	; 0x800114 <cur_motion>
    12b2:	4c ce       	rjmp	.-872    	; 0xf4c <.L122>

000012b4 <.L155>:
                cur_motion = MOVE_STOP;
    12b4:	10 92 14 01 	sts	0x0114, r1	; 0x800114 <cur_motion>

000012b8 <.LBE188>:
}
    12b8:	49 ce       	rjmp	.-878    	; 0xf4c <.L122>

000012ba <message_crc>:
#include "message.h"
#include <util/crc16.h>  // for optimized crc routines

uint16_t message_crc(const message_t *msg) {
    12ba:	fc 01       	movw	r30, r24

000012bc <.LVL1>:
    uint8_t i;
    const uint8_t *rawmsg = (const uint8_t*)msg;
    uint16_t crc = 0xFFFF;
    for (i = 0; i<sizeof(message_t)-sizeof(msg->crc); i++)
    12bc:	9c 01       	movw	r18, r24
    12be:	26 5f       	subi	r18, 0xF6	; 246
    12c0:	3f 4f       	sbci	r19, 0xFF	; 255

000012c2 <.Loc.7>:
    uint16_t crc = 0xFFFF;
    12c2:	8f ef       	ldi	r24, 0xFF	; 255
    12c4:	9f ef       	ldi	r25, 0xFF	; 255

000012c6 <.L2>:
        crc = _crc_ccitt_update(crc, rawmsg[i]);
    12c6:	41 91       	ld	r20, Z+

000012c8 <.LBB4>:
static __inline__ uint16_t
_crc_ccitt_update (uint16_t __crc, uint8_t __data)
{
    uint16_t __ret;

    __asm__ __volatile__ (
    12c8:	84 27       	eor	r24, r20
    12ca:	08 2e       	mov	r0, r24
    12cc:	82 95       	swap	r24
    12ce:	80 7f       	andi	r24, 0xF0	; 240
    12d0:	80 25       	eor	r24, r0
    12d2:	09 2e       	mov	r0, r25
    12d4:	98 2f       	mov	r25, r24
    12d6:	82 95       	swap	r24
    12d8:	8f 70       	andi	r24, 0x0F	; 15
    12da:	08 26       	eor	r0, r24
    12dc:	86 95       	lsr	r24
    12de:	98 27       	eor	r25, r24
    12e0:	89 27       	eor	r24, r25
    12e2:	88 0f       	add	r24, r24
    12e4:	88 0f       	add	r24, r24
    12e6:	88 0f       	add	r24, r24
    12e8:	80 25       	eor	r24, r0

000012ea <.LBE4>:
    for (i = 0; i<sizeof(message_t)-sizeof(msg->crc); i++)
    12ea:	e2 17       	cp	r30, r18
    12ec:	f3 07       	cpc	r31, r19
    12ee:	59 f7       	brne	.-42     	; 0x12c6 <.L2>

000012f0 <.Loc.18>:
    return crc;
}
    12f0:	08 95       	ret

000012f2 <message_send>:
.global message_send

message_send:
    ; save interrupt state
    ; sreg = SREG
    in sreg, SREG
    12f2:	0f b6       	in	r0, 0x3f	; 63

000012f4 <.Loc.1>:
#ifndef OHC
    cli
    12f4:	f8 94       	cli

000012f6 <.Loc.2>:
#endif
    ; ddreg = IR_DDR
    in  ddrreg,  IR_DDR
    12f6:	a4 b1       	in	r26, 0x04	; 4

000012f8 <.Loc.3>:

    ; IR_DDR |= tx_mask
    lds tmpreg1, tx_mask
    12f8:	20 91 47 01 	lds	r18, 0x0147	; 0x800147 <tx_mask>

000012fc <.Loc.4>:
    or tmpreg1, ddrreg
    12fc:	2a 2b       	or	r18, r26

000012fe <.Loc.5>:
    out IR_DDR, tmpreg1
    12fe:	24 b9       	out	0x04, r18	; 4

00001300 <.Loc.6>:

    ldi tmpreg1, 0x01
    1300:	21 e0       	ldi	r18, 0x01	; 1

00001302 <.Loc.7>:
    irsend
    1302:	30 91 47 01 	lds	r19, 0x0147	; 0x800147 <tx_mask>
    1306:	20 30       	cpi	r18, 0x00	; 0
    1308:	29 f0       	breq	.+10     	; 0x1314 <.L1^B1>
    130a:	00 00       	nop
    130c:	25 b1       	in	r18, 0x05	; 5
    130e:	23 2b       	or	r18, r19
    1310:	25 b9       	out	0x05, r18	; 5
    1312:	04 c0       	rjmp	.+8      	; 0x131c <.L2^B1>

00001314 <.L1^B1>:
    1314:	00 00       	nop
    1316:	00 00       	nop
    1318:	00 00       	nop
    131a:	00 c0       	rjmp	.+0      	; 0x131c <.L2^B1>

0000131c <.L2^B1>:
    131c:	00 00       	nop
    131e:	00 00       	nop
    1320:	00 00       	nop
    1322:	30 95       	com	r19
    1324:	25 b1       	in	r18, 0x05	; 5
    1326:	23 23       	and	r18, r19
    1328:	25 b9       	out	0x05, r18	; 5

0000132a <.Loc.8>:
    delay_cycles (2*rx_bitcycles-irsend_cycles)
    132a:	2e ea       	ldi	r18, 0xAE	; 174

0000132c <.L1^B2>:
    132c:	2a 95       	dec	r18
    132e:	f1 f7       	brne	.-4      	; 0x132c <.L1^B2>

00001330 <.Loc.9>:

    ldi tmpreg1, rx_bitcycles*7/8
    1330:	2b ee       	ldi	r18, 0xEB	; 235

00001332 <checkcollision>:
checkcollision:
    ; if (ACSR&(1<<ACO)) == 0 goto nocollision
    in tmpreg2, ACSR
    1332:	30 b7       	in	r19, 0x30	; 48

00001334 <.Loc.11>:
    sbrs tmpreg2, ACO
    1334:	35 ff       	sbrs	r19, 5

00001336 <.Loc.12>:
    rjmp nocollision
    1336:	0a c0       	rjmp	.+20     	; 0x134c <nocollision>

00001338 <.Loc.13>:
    ; IR_DDR = ddrreg
    out IR_DDR, ddrreg
    1338:	a4 b9       	out	0x04, r26	; 4

0000133a <.Loc.14>:
    ; IR_PORT &= ~(tx_mask)
    lds tmpreg2, tx_mask
    133a:	30 91 47 01 	lds	r19, 0x0147	; 0x800147 <tx_mask>

0000133e <.Loc.15>:
    com tmpreg2
    133e:	30 95       	com	r19

00001340 <.Loc.16>:
    in tmpreg1, IR_PORT
    1340:	25 b1       	in	r18, 0x05	; 5

00001342 <.Loc.17>:
    and tmpreg1, tmpreg2
    1342:	23 23       	and	r18, r19

00001344 <.Loc.18>:
    out IR_PORT, tmpreg1
    1344:	25 b9       	out	0x05, r18	; 5

00001346 <.Loc.19>:
    ; restore interrupt state
    ; SREG = sreg
    out SREG, sreg
    1346:	0f be       	out	0x3f, r0	; 63

00001348 <.Loc.20>:
    return 0
    1348:	80 e0       	ldi	r24, 0x00	; 0
    134a:	08 95       	ret

0000134c <nocollision>:
	...

0000134e <.Loc.22>:
nocollision:
    nop
    dec tmpreg1
    134e:	2a 95       	dec	r18

00001350 <.Loc.23>:
    brne checkcollision
    1350:	81 f7       	brne	.-32     	; 0x1332 <checkcollision>

00001352 <.Loc.24>:

    ldi tmpreg1, 0x01
    1352:	21 e0       	ldi	r18, 0x01	; 1

00001354 <.Loc.25>:
    irsend
    1354:	30 91 47 01 	lds	r19, 0x0147	; 0x800147 <tx_mask>
    1358:	20 30       	cpi	r18, 0x00	; 0
    135a:	29 f0       	breq	.+10     	; 0x1366 <.L1^B3>
    135c:	00 00       	nop
    135e:	25 b1       	in	r18, 0x05	; 5
    1360:	23 2b       	or	r18, r19
    1362:	25 b9       	out	0x05, r18	; 5
    1364:	04 c0       	rjmp	.+8      	; 0x136e <.L2^B2>

00001366 <.L1^B3>:
    1366:	00 00       	nop
    1368:	00 00       	nop
    136a:	00 00       	nop
    136c:	00 c0       	rjmp	.+0      	; 0x136e <.L2^B2>

0000136e <.L2^B2>:
    136e:	00 00       	nop
    1370:	00 00       	nop
    1372:	00 00       	nop
    1374:	30 95       	com	r19
    1376:	25 b1       	in	r18, 0x05	; 5
    1378:	23 23       	and	r18, r19
    137a:	25 b9       	out	0x05, r18	; 5

0000137c <.Loc.26>:
    delay_cycles (rx_bitcycles-irsend_cycles)
    137c:	00 00       	nop
    137e:	24 e5       	ldi	r18, 0x54	; 84

00001380 <.L1^B4>:
    1380:	2a 95       	dec	r18
    1382:	f1 f7       	brne	.-4      	; 0x1380 <.L1^B4>

00001384 <.Loc.27>:

    movw r30, r24     ; // copy msg pointer in r24:r25 to r30:r31
    1384:	fc 01       	movw	r30, r24

00001386 <.Loc.28>:
    ldi byteidx, 12
    1386:	8c e0       	ldi	r24, 0x0C	; 12

00001388 <sendbyte>:

sendbyte:
    ; byteval = msg[i++]<<1 | (1<<0) | (1<<9)
    ld bytevalL, Z+
    1388:	61 91       	ld	r22, Z+

0000138a <.Loc.30>:
    ldi bytevalH, 0x00
    138a:	70 e0       	ldi	r23, 0x00	; 0

0000138c <.Loc.31>:
    add bytevalL, bytevalL
    138c:	66 0f       	add	r22, r22

0000138e <.Loc.32>:
    adc bytevalH, bytevalH
    138e:	77 1f       	adc	r23, r23

00001390 <.Loc.33>:
    ori bytevalL, 0x01
    1390:	61 60       	ori	r22, 0x01	; 1

00001392 <.Loc.34>:
    ori bytevalH, 0x02
    1392:	72 60       	ori	r23, 0x02	; 2

00001394 <.Loc.35>:
    ; bitidex = 10
    ldi bitidx, 10
    1394:	9a e0       	ldi	r25, 0x0A	; 10

00001396 <.Loc.36>:
    ; bitmask = 0x00001
    ldi bitmaskL, 0x01
    1396:	41 e0       	ldi	r20, 0x01	; 1

00001398 <.Loc.37>:
    ldi bitmaskH, 0x00
    1398:	50 e0       	ldi	r21, 0x00	; 0

0000139a <sendbit>:

    ; 9 cycles per iteration + irsend
sendbit:
    ; tmpreg = (byteval&bytemask)
    movw tmpreg1, bitmaskL
    139a:	9a 01       	movw	r18, r20

0000139c <.Loc.39>:
    and tmpreg1, bytevalL
    139c:	26 23       	and	r18, r22

0000139e <.Loc.40>:
    and tmpreg2, bytevalH
    139e:	37 23       	and	r19, r23

000013a0 <.Loc.41>:
    or  tmpreg1, tmpreg2
    13a0:	23 2b       	or	r18, r19

000013a2 <.Loc.42>:

    ; irsend tmpreg
    irsend
    13a2:	30 91 47 01 	lds	r19, 0x0147	; 0x800147 <tx_mask>
    13a6:	20 30       	cpi	r18, 0x00	; 0
    13a8:	29 f0       	breq	.+10     	; 0x13b4 <.L1^B5>
    13aa:	00 00       	nop
    13ac:	25 b1       	in	r18, 0x05	; 5
    13ae:	23 2b       	or	r18, r19
    13b0:	25 b9       	out	0x05, r18	; 5
    13b2:	04 c0       	rjmp	.+8      	; 0x13bc <.L2^B3>

000013b4 <.L1^B5>:
    13b4:	00 00       	nop
    13b6:	00 00       	nop
    13b8:	00 00       	nop
    13ba:	00 c0       	rjmp	.+0      	; 0x13bc <.L2^B3>

000013bc <.L2^B3>:
    13bc:	00 00       	nop
    13be:	00 00       	nop
    13c0:	00 00       	nop
    13c2:	30 95       	com	r19
    13c4:	25 b1       	in	r18, 0x05	; 5
    13c6:	23 23       	and	r18, r19
    13c8:	25 b9       	out	0x05, r18	; 5

000013ca <.Loc.43>:
    delay_cycles (rx_bitcycles-irsend_cycles-9)
    13ca:	00 00       	nop
    13cc:	21 e5       	ldi	r18, 0x51	; 81

000013ce <.L1^B6>:
    13ce:	2a 95       	dec	r18
    13d0:	f1 f7       	brne	.-4      	; 0x13ce <.L1^B6>

000013d2 <.Loc.44>:

    ; bitmask <<= 1
    add bitmaskL, bitmaskL
    13d2:	44 0f       	add	r20, r20

000013d4 <.Loc.45>:
    adc bitmaskH, bitmaskH
    13d4:	55 1f       	adc	r21, r21

000013d6 <.Loc.46>:

    ; if (bitidex--) goto sendbit
    dec bitidx
    13d6:	9a 95       	dec	r25

000013d8 <.Loc.47>:
    brne sendbit
    13d8:	01 f7       	brne	.-64     	; 0x139a <sendbit>

000013da <.Loc.48>:

    ; if (byteidx--) goto sendbyte
    dec byteidx
    13da:	8a 95       	dec	r24

000013dc <.Loc.49>:
    brne sendbyte
    13dc:	a9 f6       	brne	.-86     	; 0x1388 <sendbyte>

000013de <.Loc.50>:

    ; ACSR |= (1<<ACI)
    in tmpreg1, ACSR
    13de:	20 b7       	in	r18, 0x30	; 48

000013e0 <.Loc.51>:
    ori tmpreg1, (1<<ACI)
    13e0:	20 61       	ori	r18, 0x10	; 16

000013e2 <.Loc.52>:
    out ACSR, tmpreg1
    13e2:	20 bf       	out	0x30, r18	; 48

000013e4 <.Loc.53>:
    ; IR_DDR = ddrreg
    out IR_DDR, ddrreg
    13e4:	a4 b9       	out	0x04, r26	; 4

000013e6 <.Loc.54>:

    ; IR_PORT &= ~(tx_mask)
    lds tmpreg2, tx_mask
    13e6:	30 91 47 01 	lds	r19, 0x0147	; 0x800147 <tx_mask>

000013ea <.Loc.55>:
    com tmpreg2
    13ea:	30 95       	com	r19

000013ec <.Loc.56>:
    in tmpreg1, IR_PORT
    13ec:	25 b1       	in	r18, 0x05	; 5

000013ee <.Loc.57>:
    and tmpreg1, tmpreg2
    13ee:	23 23       	and	r18, r19

000013f0 <.Loc.58>:
    out IR_PORT, tmpreg1
    13f0:	25 b9       	out	0x05, r18	; 5

000013f2 <.Loc.59>:

    ; restore interrupt state
    ; SREG = sreg
    out SREG, sreg
    13f2:	0f be       	out	0x3f, r0	; 63

000013f4 <.Loc.60>:
    return 1
    13f4:	81 e0       	ldi	r24, 0x01	; 1
    13f6:	08 95       	ret

000013f8 <main>:

int main() {
    kilo_init();
    13f8:	0e 94 26 01 	call	0x24c	; 0x24c <kilo_init>

000013fc <.LVL24>:
    kilo_message_rx = message_rx;
    13fc:	86 e6       	ldi	r24, 0x66	; 102
    13fe:	90 e0       	ldi	r25, 0x00	; 0
    1400:	90 93 09 01 	sts	0x0109, r25	; 0x800109 <kilo_message_rx+0x1>
    1404:	80 93 08 01 	sts	0x0108, r24	; 0x800108 <kilo_message_rx>

00001408 <.Loc.101>:
    kilo_message_tx = message_tx;
    1408:	8f e5       	ldi	r24, 0x5F	; 95
    140a:	90 e0       	ldi	r25, 0x00	; 0
    140c:	90 93 07 01 	sts	0x0107, r25	; 0x800107 <kilo_message_tx+0x1>
    1410:	80 93 06 01 	sts	0x0106, r24	; 0x800106 <kilo_message_tx>

00001414 <.Loc.103>:
    kilo_message_tx_success = message_tx_success;
    1414:	82 e6       	ldi	r24, 0x62	; 98
    1416:	90 e0       	ldi	r25, 0x00	; 0
    1418:	90 93 05 01 	sts	0x0105, r25	; 0x800105 <kilo_message_tx_success+0x1>
    141c:	80 93 04 01 	sts	0x0104, r24	; 0x800104 <kilo_message_tx_success>

00001420 <.Loc.105>:
    kilo_start(setup, loop);
    1420:	68 ea       	ldi	r22, 0xA8	; 168
    1422:	70 e0       	ldi	r23, 0x00	; 0
    1424:	84 e8       	ldi	r24, 0x84	; 132
    1426:	90 e0       	ldi	r25, 0x00	; 0
    1428:	0e 94 3c 06 	call	0xc78	; 0xc78 <kilo_start>

0000142c <.LVL25>:

    return 0;
}
    142c:	90 e0       	ldi	r25, 0x00	; 0
    142e:	80 e0       	ldi	r24, 0x00	; 0
    1430:	08 95       	ret

00001432 <__divmodhi4>:
    1432:	97 fb       	bst	r25, 7

00001434 <.Loc.1>:
    1434:	07 2e       	mov	r0, r23

00001436 <.Loc.2>:
    1436:	16 f4       	brtc	.+4      	; 0x143c <.L0^B1>

00001438 <.Loc.3>:
    1438:	00 94       	com	r0

0000143a <.Loc.4>:
    143a:	07 d0       	rcall	.+14     	; 0x144a <__divmodhi4_neg1>

0000143c <.L0^B1>:
    143c:	77 fd       	sbrc	r23, 7

0000143e <.Loc.6>:
    143e:	09 d0       	rcall	.+18     	; 0x1452 <__divmodhi4_neg2>

00001440 <.Loc.7>:
    1440:	0e 94 42 0a 	call	0x1484	; 0x1484 <__udivmodhi4>

00001444 <.Loc.8>:
    1444:	07 fc       	sbrc	r0, 7

00001446 <.Loc.9>:
    1446:	05 d0       	rcall	.+10     	; 0x1452 <__divmodhi4_neg2>

00001448 <.Loc.10>:
    1448:	3e f4       	brtc	.+14     	; 0x1458 <__divmodhi4_exit>

0000144a <__divmodhi4_neg1>:
    144a:	90 95       	com	r25

0000144c <.Loc.12>:
    144c:	81 95       	neg	r24

0000144e <.Loc.13>:
    144e:	9f 4f       	sbci	r25, 0xFF	; 255

00001450 <.Loc.14>:
    1450:	08 95       	ret

00001452 <__divmodhi4_neg2>:
    1452:	70 95       	com	r23

00001454 <.Loc.16>:
    1454:	61 95       	neg	r22

00001456 <.Loc.17>:
    1456:	7f 4f       	sbci	r23, 0xFF	; 255

00001458 <__divmodhi4_exit>:
    1458:	08 95       	ret

0000145a <__tablejump2__>:
    145a:	ee 0f       	add	r30, r30

0000145c <.Loc.1>:
    145c:	ff 1f       	adc	r31, r31

0000145e <.Loc.2>:
    145e:	05 90       	lpm	r0, Z+

00001460 <.Loc.3>:
    1460:	f4 91       	lpm	r31, Z

00001462 <.Loc.4>:
    1462:	e0 2d       	mov	r30, r0

00001464 <.Loc.5>:
    1464:	09 94       	ijmp

00001466 <__umulhisi3>:
    1466:	a2 9f       	mul	r26, r18

00001468 <.Loc.1>:
    1468:	b0 01       	movw	r22, r0

0000146a <.Loc.2>:
    146a:	b3 9f       	mul	r27, r19

0000146c <.Loc.3>:
    146c:	c0 01       	movw	r24, r0

0000146e <.Loc.4>:
    146e:	a3 9f       	mul	r26, r19

00001470 <.Loc.5>:
    1470:	70 0d       	add	r23, r0

00001472 <.Loc.6>:
    1472:	81 1d       	adc	r24, r1

00001474 <.Loc.7>:
    1474:	11 24       	eor	r1, r1

00001476 <.Loc.8>:
    1476:	91 1d       	adc	r25, r1

00001478 <.Loc.9>:
    1478:	b2 9f       	mul	r27, r18

0000147a <.Loc.10>:
    147a:	70 0d       	add	r23, r0

0000147c <.Loc.11>:
    147c:	81 1d       	adc	r24, r1

0000147e <.Loc.12>:
    147e:	11 24       	eor	r1, r1

00001480 <.Loc.13>:
    1480:	91 1d       	adc	r25, r1

00001482 <.Loc.14>:
    1482:	08 95       	ret

00001484 <__udivmodhi4>:
    1484:	aa 1b       	sub	r26, r26

00001486 <.Loc.1>:
    1486:	bb 1b       	sub	r27, r27

00001488 <.Loc.2>:
    1488:	51 e1       	ldi	r21, 0x11	; 17

0000148a <.Loc.3>:
    148a:	07 c0       	rjmp	.+14     	; 0x149a <__udivmodhi4_ep>

0000148c <__udivmodhi4_loop>:
    148c:	aa 1f       	adc	r26, r26

0000148e <.Loc.5>:
    148e:	bb 1f       	adc	r27, r27

00001490 <.Loc.6>:
    1490:	a6 17       	cp	r26, r22

00001492 <.Loc.7>:
    1492:	b7 07       	cpc	r27, r23

00001494 <.Loc.8>:
    1494:	10 f0       	brcs	.+4      	; 0x149a <__udivmodhi4_ep>

00001496 <.Loc.9>:
    1496:	a6 1b       	sub	r26, r22

00001498 <.Loc.10>:
    1498:	b7 0b       	sbc	r27, r23

0000149a <__udivmodhi4_ep>:
    149a:	88 1f       	adc	r24, r24

0000149c <.Loc.12>:
    149c:	99 1f       	adc	r25, r25

0000149e <.Loc.13>:
    149e:	5a 95       	dec	r21

000014a0 <.Loc.14>:
    14a0:	a9 f7       	brne	.-22     	; 0x148c <__udivmodhi4_loop>

000014a2 <.Loc.15>:
    14a2:	80 95       	com	r24

000014a4 <.Loc.16>:
    14a4:	90 95       	com	r25

000014a6 <.Loc.17>:
    14a6:	bc 01       	movw	r22, r24

000014a8 <.Loc.18>:
    14a8:	cd 01       	movw	r24, r26

000014aa <.Loc.19>:
    14aa:	08 95       	ret

000014ac <__subsf3>:
    14ac:	50 58       	subi	r21, 0x80	; 128

000014ae <__addsf3>:
    14ae:	bb 27       	eor	r27, r27
    14b0:	aa 27       	eor	r26, r26
    14b2:	0e 94 6e 0a 	call	0x14dc	; 0x14dc <__addsf3x>
    14b6:	0c 94 bf 0b 	jmp	0x177e	; 0x177e <__fp_round>

000014ba <.L0^B1>:
    14ba:	0e 94 b1 0b 	call	0x1762	; 0x1762 <__fp_pscA>
    14be:	38 f0       	brcs	.+14     	; 0x14ce <.L_nan>
    14c0:	0e 94 b8 0b 	call	0x1770	; 0x1770 <__fp_pscB>
    14c4:	20 f0       	brcs	.+8      	; 0x14ce <.L_nan>
    14c6:	39 f4       	brne	.+14     	; 0x14d6 <.L_inf>
    14c8:	9f 3f       	cpi	r25, 0xFF	; 255
    14ca:	19 f4       	brne	.+6      	; 0x14d2 <.L_infB>
    14cc:	26 f4       	brtc	.+8      	; 0x14d6 <.L_inf>

000014ce <.L_nan>:
    14ce:	0c 94 ae 0b 	jmp	0x175c	; 0x175c <__fp_nan>

000014d2 <.L_infB>:
    14d2:	0e f4       	brtc	.+2      	; 0x14d6 <.L_inf>
    14d4:	e0 95       	com	r30

000014d6 <.L_inf>:
    14d6:	e7 fb       	bst	r30, 7
    14d8:	0c 94 a8 0b 	jmp	0x1750	; 0x1750 <__fp_inf>

000014dc <__addsf3x>:
    14dc:	e9 2f       	mov	r30, r25
    14de:	0e 94 d0 0b 	call	0x17a0	; 0x17a0 <__fp_split3>
    14e2:	58 f3       	brcs	.-42     	; 0x14ba <.L0^B1>
    14e4:	ba 17       	cp	r27, r26
    14e6:	62 07       	cpc	r22, r18
    14e8:	73 07       	cpc	r23, r19
    14ea:	84 07       	cpc	r24, r20
    14ec:	95 07       	cpc	r25, r21
    14ee:	20 f0       	brcs	.+8      	; 0x14f8 <.L2^B1>
    14f0:	79 f4       	brne	.+30     	; 0x1510 <.L4^B1>
    14f2:	a6 f5       	brtc	.+104    	; 0x155c <.L_add>
    14f4:	0c 94 f2 0b 	jmp	0x17e4	; 0x17e4 <__fp_zero>

000014f8 <.L2^B1>:
    14f8:	0e f4       	brtc	.+2      	; 0x14fc <.L3^B1>
    14fa:	e0 95       	com	r30

000014fc <.L3^B1>:
    14fc:	0b 2e       	mov	r0, r27
    14fe:	ba 2f       	mov	r27, r26
    1500:	a0 2d       	mov	r26, r0
    1502:	0b 01       	movw	r0, r22
    1504:	b9 01       	movw	r22, r18
    1506:	90 01       	movw	r18, r0
    1508:	0c 01       	movw	r0, r24
    150a:	ca 01       	movw	r24, r20
    150c:	a0 01       	movw	r20, r0
    150e:	11 24       	eor	r1, r1

00001510 <.L4^B1>:
    1510:	ff 27       	eor	r31, r31
    1512:	59 1b       	sub	r21, r25

00001514 <.L5^B1>:
    1514:	99 f0       	breq	.+38     	; 0x153c <.L7^B1>
    1516:	59 3f       	cpi	r21, 0xF9	; 249
    1518:	50 f4       	brcc	.+20     	; 0x152e <.L6^B1>
    151a:	50 3e       	cpi	r21, 0xE0	; 224
    151c:	68 f1       	brcs	.+90     	; 0x1578 <.L_ret>
    151e:	1a 16       	cp	r1, r26
    1520:	f0 40       	sbci	r31, 0x00	; 0
    1522:	a2 2f       	mov	r26, r18
    1524:	23 2f       	mov	r18, r19
    1526:	34 2f       	mov	r19, r20
    1528:	44 27       	eor	r20, r20
    152a:	58 5f       	subi	r21, 0xF8	; 248
    152c:	f3 cf       	rjmp	.-26     	; 0x1514 <.L5^B1>

0000152e <.L6^B1>:
    152e:	46 95       	lsr	r20
    1530:	37 95       	ror	r19
    1532:	27 95       	ror	r18
    1534:	a7 95       	ror	r26
    1536:	f0 40       	sbci	r31, 0x00	; 0
    1538:	53 95       	inc	r21
    153a:	c9 f7       	brne	.-14     	; 0x152e <.L6^B1>

0000153c <.L7^B1>:
    153c:	7e f4       	brtc	.+30     	; 0x155c <.L_add>
    153e:	1f 16       	cp	r1, r31
    1540:	ba 0b       	sbc	r27, r26
    1542:	62 0b       	sbc	r22, r18
    1544:	73 0b       	sbc	r23, r19
    1546:	84 0b       	sbc	r24, r20
    1548:	ba f0       	brmi	.+46     	; 0x1578 <.L_ret>

0000154a <.L8^B1>:
    154a:	91 50       	subi	r25, 0x01	; 1
    154c:	a1 f0       	breq	.+40     	; 0x1576 <.L9^B1>
    154e:	ff 0f       	add	r31, r31
    1550:	bb 1f       	adc	r27, r27
    1552:	66 1f       	adc	r22, r22
    1554:	77 1f       	adc	r23, r23
    1556:	88 1f       	adc	r24, r24
    1558:	c2 f7       	brpl	.-16     	; 0x154a <.L8^B1>
    155a:	0e c0       	rjmp	.+28     	; 0x1578 <.L_ret>

0000155c <.L_add>:
    155c:	ba 0f       	add	r27, r26
    155e:	62 1f       	adc	r22, r18
    1560:	73 1f       	adc	r23, r19
    1562:	84 1f       	adc	r24, r20
    1564:	48 f4       	brcc	.+18     	; 0x1578 <.L_ret>
    1566:	87 95       	ror	r24
    1568:	77 95       	ror	r23
    156a:	67 95       	ror	r22
    156c:	b7 95       	ror	r27
    156e:	f7 95       	ror	r31
    1570:	9e 3f       	cpi	r25, 0xFE	; 254
    1572:	08 f0       	brcs	.+2      	; 0x1576 <.L9^B1>
    1574:	b0 cf       	rjmp	.-160    	; 0x14d6 <.L_inf>

00001576 <.L9^B1>:
    1576:	93 95       	inc	r25

00001578 <.L_ret>:
    1578:	88 0f       	add	r24, r24
    157a:	08 f0       	brcs	.+2      	; 0x157e <.L1^B1>
    157c:	99 27       	eor	r25, r25

0000157e <.L1^B1>:
    157e:	ee 0f       	add	r30, r30
    1580:	97 95       	ror	r25
    1582:	87 95       	ror	r24
    1584:	08 95       	ret

00001586 <__divsf3>:
    1586:	0e 94 d7 0a 	call	0x15ae	; 0x15ae <__divsf3x>
    158a:	0c 94 bf 0b 	jmp	0x177e	; 0x177e <__fp_round>

0000158e <.L0^B1>:
    158e:	0e 94 b8 0b 	call	0x1770	; 0x1770 <__fp_pscB>
    1592:	58 f0       	brcs	.+22     	; 0x15aa <.L_nan>
    1594:	0e 94 b1 0b 	call	0x1762	; 0x1762 <__fp_pscA>
    1598:	40 f0       	brcs	.+16     	; 0x15aa <.L_nan>
    159a:	29 f4       	brne	.+10     	; 0x15a6 <.L_zr>
    159c:	5f 3f       	cpi	r21, 0xFF	; 255
    159e:	29 f0       	breq	.+10     	; 0x15aa <.L_nan>

000015a0 <.L_inf>:
    15a0:	0c 94 a8 0b 	jmp	0x1750	; 0x1750 <__fp_inf>

000015a4 <.L1^B1>:
    15a4:	51 11       	cpse	r21, r1

000015a6 <.L_zr>:
    15a6:	0c 94 f3 0b 	jmp	0x17e6	; 0x17e6 <__fp_szero>

000015aa <.L_nan>:
    15aa:	0c 94 ae 0b 	jmp	0x175c	; 0x175c <__fp_nan>

000015ae <__divsf3x>:
    15ae:	0e 94 d0 0b 	call	0x17a0	; 0x17a0 <__fp_split3>
    15b2:	68 f3       	brcs	.-38     	; 0x158e <.L0^B1>

000015b4 <__divsf3_pse>:
    15b4:	99 23       	and	r25, r25
    15b6:	b1 f3       	breq	.-20     	; 0x15a4 <.L1^B1>
    15b8:	55 23       	and	r21, r21
    15ba:	91 f3       	breq	.-28     	; 0x15a0 <.L_inf>
    15bc:	95 1b       	sub	r25, r21
    15be:	55 0b       	sbc	r21, r21
    15c0:	bb 27       	eor	r27, r27
    15c2:	aa 27       	eor	r26, r26

000015c4 <.L2^B1>:
    15c4:	62 17       	cp	r22, r18
    15c6:	73 07       	cpc	r23, r19
    15c8:	84 07       	cpc	r24, r20
    15ca:	38 f0       	brcs	.+14     	; 0x15da <.L3^B1>
    15cc:	9f 5f       	subi	r25, 0xFF	; 255
    15ce:	5f 4f       	sbci	r21, 0xFF	; 255
    15d0:	22 0f       	add	r18, r18
    15d2:	33 1f       	adc	r19, r19
    15d4:	44 1f       	adc	r20, r20
    15d6:	aa 1f       	adc	r26, r26
    15d8:	a9 f3       	breq	.-22     	; 0x15c4 <.L2^B1>

000015da <.L3^B1>:
    15da:	35 d0       	rcall	.+106    	; 0x1646 <.L_div>
    15dc:	0e 2e       	mov	r0, r30
    15de:	3a f0       	brmi	.+14     	; 0x15ee <.L5^B1>

000015e0 <.L4^B1>:
    15e0:	e0 e8       	ldi	r30, 0x80	; 128
    15e2:	32 d0       	rcall	.+100    	; 0x1648 <.L_div1>
    15e4:	91 50       	subi	r25, 0x01	; 1
    15e6:	50 40       	sbci	r21, 0x00	; 0
    15e8:	e6 95       	lsr	r30
    15ea:	00 1c       	adc	r0, r0
    15ec:	ca f7       	brpl	.-14     	; 0x15e0 <.L4^B1>

000015ee <.L5^B1>:
    15ee:	2b d0       	rcall	.+86     	; 0x1646 <.L_div>
    15f0:	fe 2f       	mov	r31, r30
    15f2:	29 d0       	rcall	.+82     	; 0x1646 <.L_div>
    15f4:	66 0f       	add	r22, r22
    15f6:	77 1f       	adc	r23, r23
    15f8:	88 1f       	adc	r24, r24
    15fa:	bb 1f       	adc	r27, r27
    15fc:	26 17       	cp	r18, r22
    15fe:	37 07       	cpc	r19, r23
    1600:	48 07       	cpc	r20, r24
    1602:	ab 07       	cpc	r26, r27
    1604:	b0 e8       	ldi	r27, 0x80	; 128
    1606:	09 f0       	breq	.+2      	; 0x160a <.L4^B2>
    1608:	bb 0b       	sbc	r27, r27

0000160a <.L4^B2>:
    160a:	80 2d       	mov	r24, r0
    160c:	bf 01       	movw	r22, r30
    160e:	ff 27       	eor	r31, r31
    1610:	93 58       	subi	r25, 0x83	; 131
    1612:	5f 4f       	sbci	r21, 0xFF	; 255
    1614:	3a f0       	brmi	.+14     	; 0x1624 <.L13^B1>
    1616:	9e 3f       	cpi	r25, 0xFE	; 254
    1618:	51 05       	cpc	r21, r1
    161a:	78 f0       	brcs	.+30     	; 0x163a <.L15^B1>
    161c:	0c 94 a8 0b 	jmp	0x1750	; 0x1750 <__fp_inf>

00001620 <.L12^B1>:
    1620:	0c 94 f3 0b 	jmp	0x17e6	; 0x17e6 <__fp_szero>

00001624 <.L13^B1>:
    1624:	5f 3f       	cpi	r21, 0xFF	; 255
    1626:	e4 f3       	brlt	.-8      	; 0x1620 <.L12^B1>
    1628:	98 3e       	cpi	r25, 0xE8	; 232
    162a:	d4 f3       	brlt	.-12     	; 0x1620 <.L12^B1>

0000162c <.L14^B1>:
    162c:	86 95       	lsr	r24
    162e:	77 95       	ror	r23
    1630:	67 95       	ror	r22
    1632:	b7 95       	ror	r27
    1634:	f7 95       	ror	r31
    1636:	9f 5f       	subi	r25, 0xFF	; 255
    1638:	c9 f7       	brne	.-14     	; 0x162c <.L14^B1>

0000163a <.L15^B1>:
    163a:	88 0f       	add	r24, r24
    163c:	91 1d       	adc	r25, r1
    163e:	96 95       	lsr	r25
    1640:	87 95       	ror	r24
    1642:	97 f9       	bld	r25, 7
    1644:	08 95       	ret

00001646 <.L_div>:
    1646:	e1 e0       	ldi	r30, 0x01	; 1

00001648 <.L_div1>:
    1648:	66 0f       	add	r22, r22
    164a:	77 1f       	adc	r23, r23
    164c:	88 1f       	adc	r24, r24
    164e:	bb 1f       	adc	r27, r27
    1650:	62 17       	cp	r22, r18
    1652:	73 07       	cpc	r23, r19
    1654:	84 07       	cpc	r24, r20
    1656:	ba 07       	cpc	r27, r26
    1658:	20 f0       	brcs	.+8      	; 0x1662 <.L2^B2>
    165a:	62 1b       	sub	r22, r18
    165c:	73 0b       	sbc	r23, r19
    165e:	84 0b       	sbc	r24, r20
    1660:	ba 0b       	sbc	r27, r26

00001662 <.L2^B2>:
    1662:	ee 1f       	adc	r30, r30
    1664:	88 f7       	brcc	.-30     	; 0x1648 <.L_div1>
    1666:	e0 95       	com	r30
    1668:	08 95       	ret

0000166a <__fixsfsi>:
    166a:	0e 94 3c 0b 	call	0x1678	; 0x1678 <__fixunssfsi>
    166e:	68 94       	set
    1670:	b1 11       	cpse	r27, r1
    1672:	0c 94 f3 0b 	jmp	0x17e6	; 0x17e6 <__fp_szero>
    1676:	08 95       	ret

00001678 <__fixunssfsi>:
    1678:	0e 94 d8 0b 	call	0x17b0	; 0x17b0 <__fp_splitA>
    167c:	88 f0       	brcs	.+34     	; 0x16a0 <.L_err>
    167e:	9f 57       	subi	r25, 0x7F	; 127
    1680:	98 f0       	brcs	.+38     	; 0x16a8 <.L_zr>
    1682:	b9 2f       	mov	r27, r25
    1684:	99 27       	eor	r25, r25
    1686:	b7 51       	subi	r27, 0x17	; 23
    1688:	b0 f0       	brcs	.+44     	; 0x16b6 <.L4^B1>
    168a:	e1 f0       	breq	.+56     	; 0x16c4 <.L_sign>

0000168c <.L1^B1>:
    168c:	66 0f       	add	r22, r22
    168e:	77 1f       	adc	r23, r23
    1690:	88 1f       	adc	r24, r24
    1692:	99 1f       	adc	r25, r25
    1694:	1a f0       	brmi	.+6      	; 0x169c <.L2^B1>
    1696:	ba 95       	dec	r27
    1698:	c9 f7       	brne	.-14     	; 0x168c <.L1^B1>
    169a:	14 c0       	rjmp	.+40     	; 0x16c4 <.L_sign>

0000169c <.L2^B1>:
    169c:	b1 30       	cpi	r27, 0x01	; 1
    169e:	91 f0       	breq	.+36     	; 0x16c4 <.L_sign>

000016a0 <.L_err>:
    16a0:	0e 94 f2 0b 	call	0x17e4	; 0x17e4 <__fp_zero>
    16a4:	b1 e0       	ldi	r27, 0x01	; 1
    16a6:	08 95       	ret

000016a8 <.L_zr>:
    16a8:	0c 94 f2 0b 	jmp	0x17e4	; 0x17e4 <__fp_zero>

000016ac <.L3^B1>:
    16ac:	67 2f       	mov	r22, r23
    16ae:	78 2f       	mov	r23, r24
    16b0:	88 27       	eor	r24, r24
    16b2:	b8 5f       	subi	r27, 0xF8	; 248
    16b4:	39 f0       	breq	.+14     	; 0x16c4 <.L_sign>

000016b6 <.L4^B1>:
    16b6:	b9 3f       	cpi	r27, 0xF9	; 249
    16b8:	cc f3       	brlt	.-14     	; 0x16ac <.L3^B1>

000016ba <.L5^B1>:
    16ba:	86 95       	lsr	r24
    16bc:	77 95       	ror	r23
    16be:	67 95       	ror	r22
    16c0:	b3 95       	inc	r27
    16c2:	d9 f7       	brne	.-10     	; 0x16ba <.L5^B1>

000016c4 <.L_sign>:
    16c4:	3e f4       	brtc	.+14     	; 0x16d4 <.L6^B1>
    16c6:	90 95       	com	r25
    16c8:	80 95       	com	r24
    16ca:	70 95       	com	r23
    16cc:	61 95       	neg	r22
    16ce:	7f 4f       	sbci	r23, 0xFF	; 255
    16d0:	8f 4f       	sbci	r24, 0xFF	; 255
    16d2:	9f 4f       	sbci	r25, 0xFF	; 255

000016d4 <.L6^B1>:
    16d4:	08 95       	ret

000016d6 <__floatunsisf>:
    16d6:	e8 94       	clt
    16d8:	09 c0       	rjmp	.+18     	; 0x16ec <.L1^B1>

000016da <__floatsisf>:
    16da:	97 fb       	bst	r25, 7
    16dc:	3e f4       	brtc	.+14     	; 0x16ec <.L1^B1>
    16de:	90 95       	com	r25
    16e0:	80 95       	com	r24
    16e2:	70 95       	com	r23
    16e4:	61 95       	neg	r22
    16e6:	7f 4f       	sbci	r23, 0xFF	; 255
    16e8:	8f 4f       	sbci	r24, 0xFF	; 255
    16ea:	9f 4f       	sbci	r25, 0xFF	; 255

000016ec <.L1^B1>:
    16ec:	99 23       	and	r25, r25
    16ee:	a9 f0       	breq	.+42     	; 0x171a <.L4^B1>
    16f0:	f9 2f       	mov	r31, r25
    16f2:	96 e9       	ldi	r25, 0x96	; 150
    16f4:	bb 27       	eor	r27, r27

000016f6 <.L2^B1>:
    16f6:	93 95       	inc	r25
    16f8:	f6 95       	lsr	r31
    16fa:	87 95       	ror	r24
    16fc:	77 95       	ror	r23
    16fe:	67 95       	ror	r22
    1700:	b7 95       	ror	r27
    1702:	f1 11       	cpse	r31, r1
    1704:	f8 cf       	rjmp	.-16     	; 0x16f6 <.L2^B1>
    1706:	fa f4       	brpl	.+62     	; 0x1746 <.L_pack>
    1708:	bb 0f       	add	r27, r27
    170a:	11 f4       	brne	.+4      	; 0x1710 <.L3^B1>
    170c:	60 ff       	sbrs	r22, 0
    170e:	1b c0       	rjmp	.+54     	; 0x1746 <.L_pack>

00001710 <.L3^B1>:
    1710:	6f 5f       	subi	r22, 0xFF	; 255
    1712:	7f 4f       	sbci	r23, 0xFF	; 255
    1714:	8f 4f       	sbci	r24, 0xFF	; 255
    1716:	9f 4f       	sbci	r25, 0xFF	; 255
    1718:	16 c0       	rjmp	.+44     	; 0x1746 <.L_pack>

0000171a <.L4^B1>:
    171a:	88 23       	and	r24, r24
    171c:	11 f0       	breq	.+4      	; 0x1722 <.L5^B1>
    171e:	96 e9       	ldi	r25, 0x96	; 150
    1720:	11 c0       	rjmp	.+34     	; 0x1744 <.L8^B1>

00001722 <.L5^B1>:
    1722:	77 23       	and	r23, r23
    1724:	21 f0       	breq	.+8      	; 0x172e <.L6^B1>
    1726:	9e e8       	ldi	r25, 0x8E	; 142
    1728:	87 2f       	mov	r24, r23
    172a:	76 2f       	mov	r23, r22
    172c:	05 c0       	rjmp	.+10     	; 0x1738 <.L7^B1>

0000172e <.L6^B1>:
    172e:	66 23       	and	r22, r22
    1730:	71 f0       	breq	.+28     	; 0x174e <.L9^B1>
    1732:	96 e8       	ldi	r25, 0x86	; 134
    1734:	86 2f       	mov	r24, r22
    1736:	70 e0       	ldi	r23, 0x00	; 0

00001738 <.L7^B1>:
    1738:	60 e0       	ldi	r22, 0x00	; 0
    173a:	2a f0       	brmi	.+10     	; 0x1746 <.L_pack>

0000173c <.L10^B1>:
    173c:	9a 95       	dec	r25
    173e:	66 0f       	add	r22, r22
    1740:	77 1f       	adc	r23, r23
    1742:	88 1f       	adc	r24, r24

00001744 <.L8^B1>:
    1744:	da f7       	brpl	.-10     	; 0x173c <.L10^B1>

00001746 <.L_pack>:
    1746:	88 0f       	add	r24, r24
    1748:	96 95       	lsr	r25
    174a:	87 95       	ror	r24
    174c:	97 f9       	bld	r25, 7

0000174e <.L9^B1>:
    174e:	08 95       	ret

00001750 <__fp_inf>:
    1750:	97 f9       	bld	r25, 7
    1752:	9f 67       	ori	r25, 0x7F	; 127
    1754:	80 e8       	ldi	r24, 0x80	; 128
    1756:	70 e0       	ldi	r23, 0x00	; 0
    1758:	60 e0       	ldi	r22, 0x00	; 0
    175a:	08 95       	ret

0000175c <__fp_nan>:
    175c:	9f ef       	ldi	r25, 0xFF	; 255
    175e:	80 ec       	ldi	r24, 0xC0	; 192
    1760:	08 95       	ret

00001762 <__fp_pscA>:
    1762:	00 24       	eor	r0, r0
    1764:	0a 94       	dec	r0
    1766:	16 16       	cp	r1, r22
    1768:	17 06       	cpc	r1, r23
    176a:	18 06       	cpc	r1, r24
    176c:	09 06       	cpc	r0, r25
    176e:	08 95       	ret

00001770 <__fp_pscB>:
    1770:	00 24       	eor	r0, r0
    1772:	0a 94       	dec	r0
    1774:	12 16       	cp	r1, r18
    1776:	13 06       	cpc	r1, r19
    1778:	14 06       	cpc	r1, r20
    177a:	05 06       	cpc	r0, r21
    177c:	08 95       	ret

0000177e <__fp_round>:
    177e:	09 2e       	mov	r0, r25
    1780:	03 94       	inc	r0
    1782:	00 0c       	add	r0, r0
    1784:	11 f4       	brne	.+4      	; 0x178a <.L1^B1>
    1786:	88 23       	and	r24, r24
    1788:	52 f0       	brmi	.+20     	; 0x179e <.L3^B1>

0000178a <.L1^B1>:
    178a:	bb 0f       	add	r27, r27
    178c:	40 f4       	brcc	.+16     	; 0x179e <.L3^B1>
    178e:	bf 2b       	or	r27, r31
    1790:	11 f4       	brne	.+4      	; 0x1796 <.L2^B1>
    1792:	60 ff       	sbrs	r22, 0
    1794:	04 c0       	rjmp	.+8      	; 0x179e <.L3^B1>

00001796 <.L2^B1>:
    1796:	6f 5f       	subi	r22, 0xFF	; 255
    1798:	7f 4f       	sbci	r23, 0xFF	; 255
    179a:	8f 4f       	sbci	r24, 0xFF	; 255
    179c:	9f 4f       	sbci	r25, 0xFF	; 255

0000179e <.L3^B1>:
    179e:	08 95       	ret

000017a0 <__fp_split3>:
    17a0:	57 fd       	sbrc	r21, 7
    17a2:	90 58       	subi	r25, 0x80	; 128
    17a4:	44 0f       	add	r20, r20
    17a6:	55 1f       	adc	r21, r21
    17a8:	59 f0       	breq	.+22     	; 0x17c0 <.L4^B1>
    17aa:	5f 3f       	cpi	r21, 0xFF	; 255
    17ac:	71 f0       	breq	.+28     	; 0x17ca <.L5^B1>

000017ae <.L1^B1>:
    17ae:	47 95       	ror	r20

000017b0 <__fp_splitA>:
    17b0:	88 0f       	add	r24, r24
    17b2:	97 fb       	bst	r25, 7
    17b4:	99 1f       	adc	r25, r25
    17b6:	61 f0       	breq	.+24     	; 0x17d0 <.L6^B1>
    17b8:	9f 3f       	cpi	r25, 0xFF	; 255
    17ba:	79 f0       	breq	.+30     	; 0x17da <.L7^B1>

000017bc <.L3^B1>:
    17bc:	87 95       	ror	r24
    17be:	08 95       	ret

000017c0 <.L4^B1>:
    17c0:	12 16       	cp	r1, r18
    17c2:	13 06       	cpc	r1, r19
    17c4:	14 06       	cpc	r1, r20
    17c6:	55 1f       	adc	r21, r21
    17c8:	f2 cf       	rjmp	.-28     	; 0x17ae <.L1^B1>

000017ca <.L5^B1>:
    17ca:	46 95       	lsr	r20
    17cc:	f1 df       	rcall	.-30     	; 0x17b0 <__fp_splitA>
    17ce:	08 c0       	rjmp	.+16     	; 0x17e0 <.L8^B1>

000017d0 <.L6^B1>:
    17d0:	16 16       	cp	r1, r22
    17d2:	17 06       	cpc	r1, r23
    17d4:	18 06       	cpc	r1, r24
    17d6:	99 1f       	adc	r25, r25
    17d8:	f1 cf       	rjmp	.-30     	; 0x17bc <.L3^B1>

000017da <.L7^B1>:
    17da:	86 95       	lsr	r24
    17dc:	71 05       	cpc	r23, r1
    17de:	61 05       	cpc	r22, r1

000017e0 <.L8^B1>:
    17e0:	08 94       	sec
    17e2:	08 95       	ret

000017e4 <__fp_zero>:
    17e4:	e8 94       	clt

000017e6 <__fp_szero>:
    17e6:	bb 27       	eor	r27, r27
    17e8:	66 27       	eor	r22, r22
    17ea:	77 27       	eor	r23, r23
    17ec:	cb 01       	movw	r24, r22
    17ee:	97 f9       	bld	r25, 7
    17f0:	08 95       	ret

000017f2 <__mulsf3>:
    17f2:	0e 94 0c 0c 	call	0x1818	; 0x1818 <__mulsf3x>
    17f6:	0c 94 bf 0b 	jmp	0x177e	; 0x177e <__fp_round>

000017fa <.L0^B1>:
    17fa:	0e 94 b1 0b 	call	0x1762	; 0x1762 <__fp_pscA>
    17fe:	38 f0       	brcs	.+14     	; 0x180e <.L1^B1>
    1800:	0e 94 b8 0b 	call	0x1770	; 0x1770 <__fp_pscB>
    1804:	20 f0       	brcs	.+8      	; 0x180e <.L1^B1>
    1806:	95 23       	and	r25, r21
    1808:	11 f0       	breq	.+4      	; 0x180e <.L1^B1>
    180a:	0c 94 a8 0b 	jmp	0x1750	; 0x1750 <__fp_inf>

0000180e <.L1^B1>:
    180e:	0c 94 ae 0b 	jmp	0x175c	; 0x175c <__fp_nan>

00001812 <.L2^B1>:
    1812:	11 24       	eor	r1, r1
    1814:	0c 94 f3 0b 	jmp	0x17e6	; 0x17e6 <__fp_szero>

00001818 <__mulsf3x>:
    1818:	0e 94 d0 0b 	call	0x17a0	; 0x17a0 <__fp_split3>
    181c:	70 f3       	brcs	.-36     	; 0x17fa <.L0^B1>

0000181e <__mulsf3_pse>:
    181e:	95 9f       	mul	r25, r21
    1820:	c1 f3       	breq	.-16     	; 0x1812 <.L2^B1>
    1822:	95 0f       	add	r25, r21
    1824:	50 e0       	ldi	r21, 0x00	; 0
    1826:	55 1f       	adc	r21, r21
    1828:	62 9f       	mul	r22, r18
    182a:	f0 01       	movw	r30, r0
    182c:	72 9f       	mul	r23, r18
    182e:	bb 27       	eor	r27, r27
    1830:	f0 0d       	add	r31, r0
    1832:	b1 1d       	adc	r27, r1
    1834:	63 9f       	mul	r22, r19
    1836:	aa 27       	eor	r26, r26
    1838:	f0 0d       	add	r31, r0
    183a:	b1 1d       	adc	r27, r1
    183c:	aa 1f       	adc	r26, r26
    183e:	64 9f       	mul	r22, r20
    1840:	66 27       	eor	r22, r22
    1842:	b0 0d       	add	r27, r0
    1844:	a1 1d       	adc	r26, r1
    1846:	66 1f       	adc	r22, r22
    1848:	82 9f       	mul	r24, r18
    184a:	22 27       	eor	r18, r18
    184c:	b0 0d       	add	r27, r0
    184e:	a1 1d       	adc	r26, r1
    1850:	62 1f       	adc	r22, r18
    1852:	73 9f       	mul	r23, r19
    1854:	b0 0d       	add	r27, r0
    1856:	a1 1d       	adc	r26, r1
    1858:	62 1f       	adc	r22, r18
    185a:	83 9f       	mul	r24, r19
    185c:	a0 0d       	add	r26, r0
    185e:	61 1d       	adc	r22, r1
    1860:	22 1f       	adc	r18, r18
    1862:	74 9f       	mul	r23, r20
    1864:	33 27       	eor	r19, r19
    1866:	a0 0d       	add	r26, r0
    1868:	61 1d       	adc	r22, r1
    186a:	23 1f       	adc	r18, r19
    186c:	84 9f       	mul	r24, r20
    186e:	60 0d       	add	r22, r0
    1870:	21 1d       	adc	r18, r1
    1872:	82 2f       	mov	r24, r18
    1874:	76 2f       	mov	r23, r22
    1876:	6a 2f       	mov	r22, r26
    1878:	11 24       	eor	r1, r1
    187a:	9f 57       	subi	r25, 0x7F	; 127
    187c:	50 40       	sbci	r21, 0x00	; 0
    187e:	9a f0       	brmi	.+38     	; 0x18a6 <.L13^B1>
    1880:	f1 f0       	breq	.+60     	; 0x18be <.L15^B1>

00001882 <.L10^B1>:
    1882:	88 23       	and	r24, r24
    1884:	4a f0       	brmi	.+18     	; 0x1898 <.L11^B1>
    1886:	ee 0f       	add	r30, r30
    1888:	ff 1f       	adc	r31, r31
    188a:	bb 1f       	adc	r27, r27
    188c:	66 1f       	adc	r22, r22
    188e:	77 1f       	adc	r23, r23
    1890:	88 1f       	adc	r24, r24
    1892:	91 50       	subi	r25, 0x01	; 1
    1894:	50 40       	sbci	r21, 0x00	; 0
    1896:	a9 f7       	brne	.-22     	; 0x1882 <.L10^B1>

00001898 <.L11^B1>:
    1898:	9e 3f       	cpi	r25, 0xFE	; 254
    189a:	51 05       	cpc	r21, r1
    189c:	80 f0       	brcs	.+32     	; 0x18be <.L15^B1>
    189e:	0c 94 a8 0b 	jmp	0x1750	; 0x1750 <__fp_inf>

000018a2 <.L12^B1>:
    18a2:	0c 94 f3 0b 	jmp	0x17e6	; 0x17e6 <__fp_szero>

000018a6 <.L13^B1>:
    18a6:	5f 3f       	cpi	r21, 0xFF	; 255
    18a8:	e4 f3       	brlt	.-8      	; 0x18a2 <.L12^B1>
    18aa:	98 3e       	cpi	r25, 0xE8	; 232
    18ac:	d4 f3       	brlt	.-12     	; 0x18a2 <.L12^B1>

000018ae <.L14^B1>:
    18ae:	86 95       	lsr	r24
    18b0:	77 95       	ror	r23
    18b2:	67 95       	ror	r22
    18b4:	b7 95       	ror	r27
    18b6:	f7 95       	ror	r31
    18b8:	e7 95       	ror	r30
    18ba:	9f 5f       	subi	r25, 0xFF	; 255
    18bc:	c1 f7       	brne	.-16     	; 0x18ae <.L14^B1>

000018be <.L15^B1>:
    18be:	fe 2b       	or	r31, r30
    18c0:	88 0f       	add	r24, r24
    18c2:	91 1d       	adc	r25, r1
    18c4:	96 95       	lsr	r25
    18c6:	87 95       	ror	r24
    18c8:	97 f9       	bld	r25, 7
    18ca:	08 95       	ret

000018cc <do_rand>:
    18cc:	cf 92       	push	r12
    18ce:	df 92       	push	r13
    18d0:	ef 92       	push	r14
    18d2:	ff 92       	push	r15
    18d4:	cf 93       	push	r28
    18d6:	df 93       	push	r29
    18d8:	cd b7       	in	r28, 0x3d	; 61
    18da:	de b7       	in	r29, 0x3e	; 62
    18dc:	2a 97       	sbiw	r28, 0x0a	; 10
    18de:	0f b6       	in	r0, 0x3f	; 63
    18e0:	f8 94       	cli
    18e2:	de bf       	out	0x3e, r29	; 62
    18e4:	0f be       	out	0x3f, r0	; 63
    18e6:	cd bf       	out	0x3d, r28	; 61
    18e8:	89 87       	std	Y+9, r24	; 0x09
    18ea:	9a 87       	std	Y+10, r25	; 0x0a
    18ec:	a9 85       	ldd	r26, Y+9	; 0x09
    18ee:	ba 85       	ldd	r27, Y+10	; 0x0a
    18f0:	2d 91       	ld	r18, X+
    18f2:	3d 91       	ld	r19, X+
    18f4:	4d 91       	ld	r20, X+
    18f6:	5c 91       	ld	r21, X
    18f8:	29 83       	std	Y+1, r18	; 0x01
    18fa:	3a 83       	std	Y+2, r19	; 0x02
    18fc:	4b 83       	std	Y+3, r20	; 0x03
    18fe:	5c 83       	std	Y+4, r21	; 0x04
    1900:	23 2b       	or	r18, r19
    1902:	24 2b       	or	r18, r20
    1904:	25 2b       	or	r18, r21
    1906:	41 f4       	brne	.+16     	; 0x1918 <.L2>
    1908:	24 e2       	ldi	r18, 0x24	; 36
    190a:	39 ed       	ldi	r19, 0xD9	; 217
    190c:	4b e5       	ldi	r20, 0x5B	; 91
    190e:	57 e0       	ldi	r21, 0x07	; 7
    1910:	29 83       	std	Y+1, r18	; 0x01
    1912:	3a 83       	std	Y+2, r19	; 0x02
    1914:	4b 83       	std	Y+3, r20	; 0x03
    1916:	5c 83       	std	Y+4, r21	; 0x04

00001918 <.L2>:
    1918:	69 81       	ldd	r22, Y+1	; 0x01
    191a:	7a 81       	ldd	r23, Y+2	; 0x02
    191c:	8b 81       	ldd	r24, Y+3	; 0x03
    191e:	9c 81       	ldd	r25, Y+4	; 0x04
    1920:	2d e1       	ldi	r18, 0x1D	; 29
    1922:	33 ef       	ldi	r19, 0xF3	; 243
    1924:	41 e0       	ldi	r20, 0x01	; 1
    1926:	50 e0       	ldi	r21, 0x00	; 0
    1928:	0e 94 f4 0c 	call	0x19e8	; 0x19e8 <__divmodsi4>
    192c:	69 01       	movw	r12, r18
    192e:	7a 01       	movw	r14, r20
    1930:	a7 ea       	ldi	r26, 0xA7	; 167
    1932:	b1 e4       	ldi	r27, 0x41	; 65
    1934:	9b 01       	movw	r18, r22
    1936:	ac 01       	movw	r20, r24
    1938:	0e 94 13 0d 	call	0x1a26	; 0x1a26 <__muluhisi3>
    193c:	69 83       	std	Y+1, r22	; 0x01
    193e:	7a 83       	std	Y+2, r23	; 0x02
    1940:	8b 83       	std	Y+3, r24	; 0x03
    1942:	9c 83       	std	Y+4, r25	; 0x04
    1944:	ac ee       	ldi	r26, 0xEC	; 236
    1946:	b4 ef       	ldi	r27, 0xF4	; 244
    1948:	a7 01       	movw	r20, r14
    194a:	96 01       	movw	r18, r12
    194c:	0e 94 21 0d 	call	0x1a42	; 0x1a42 <__mulohisi3>
    1950:	9b 01       	movw	r18, r22
    1952:	ac 01       	movw	r20, r24
    1954:	89 81       	ldd	r24, Y+1	; 0x01
    1956:	9a 81       	ldd	r25, Y+2	; 0x02
    1958:	ab 81       	ldd	r26, Y+3	; 0x03
    195a:	bc 81       	ldd	r27, Y+4	; 0x04
    195c:	82 0f       	add	r24, r18
    195e:	93 1f       	adc	r25, r19
    1960:	a4 1f       	adc	r26, r20
    1962:	b5 1f       	adc	r27, r21
    1964:	b7 ff       	sbrs	r27, 7
    1966:	03 c0       	rjmp	.+6      	; 0x196e <.L3>
    1968:	01 97       	sbiw	r24, 0x01	; 1
    196a:	a1 09       	sbc	r26, r1
    196c:	b0 48       	sbci	r27, 0x80	; 128

0000196e <.L3>:
    196e:	e9 85       	ldd	r30, Y+9	; 0x09
    1970:	fa 85       	ldd	r31, Y+10	; 0x0a
    1972:	80 83       	st	Z, r24
    1974:	91 83       	std	Z+1, r25	; 0x01
    1976:	a2 83       	std	Z+2, r26	; 0x02
    1978:	b3 83       	std	Z+3, r27	; 0x03
    197a:	9f 77       	andi	r25, 0x7F	; 127
    197c:	2a 96       	adiw	r28, 0x0a	; 10
    197e:	0f b6       	in	r0, 0x3f	; 63
    1980:	f8 94       	cli
    1982:	de bf       	out	0x3e, r29	; 62
    1984:	0f be       	out	0x3f, r0	; 63
    1986:	cd bf       	out	0x3d, r28	; 61
    1988:	df 91       	pop	r29
    198a:	cf 91       	pop	r28
    198c:	ff 90       	pop	r15
    198e:	ef 90       	pop	r14
    1990:	df 90       	pop	r13
    1992:	cf 90       	pop	r12
    1994:	08 95       	ret

00001996 <rand_r>:
    1996:	0e 94 66 0c 	call	0x18cc	; 0x18cc <do_rand>
    199a:	08 95       	ret

0000199c <rand>:
    199c:	8a e0       	ldi	r24, 0x0A	; 10
    199e:	91 e0       	ldi	r25, 0x01	; 1
    19a0:	0e 94 66 0c 	call	0x18cc	; 0x18cc <do_rand>
    19a4:	08 95       	ret

000019a6 <srand>:
    19a6:	b0 e0       	ldi	r27, 0x00	; 0
    19a8:	a0 e0       	ldi	r26, 0x00	; 0
    19aa:	80 93 0a 01 	sts	0x010A, r24	; 0x80010a <next>
    19ae:	90 93 0b 01 	sts	0x010B, r25	; 0x80010b <next+0x1>
    19b2:	a0 93 0c 01 	sts	0x010C, r26	; 0x80010c <next+0x2>
    19b6:	b0 93 0d 01 	sts	0x010D, r27	; 0x80010d <next+0x3>
    19ba:	08 95       	ret

000019bc <eeprom_read_byte>:
    19bc:	f9 99       	sbic	0x1f, 1	; 31
    19be:	fe cf       	rjmp	.-4      	; 0x19bc <eeprom_read_byte>
    19c0:	92 bd       	out	0x22, r25	; 34
    19c2:	81 bd       	out	0x21, r24	; 33
    19c4:	f8 9a       	sbi	0x1f, 0	; 31
    19c6:	99 27       	eor	r25, r25
    19c8:	80 b5       	in	r24, 0x20	; 32
    19ca:	08 95       	ret

000019cc <eeprom_write_byte>:
    19cc:	26 2f       	mov	r18, r22

000019ce <eeprom_write_r18>:
    19ce:	f9 99       	sbic	0x1f, 1	; 31
    19d0:	fe cf       	rjmp	.-4      	; 0x19ce <eeprom_write_r18>
    19d2:	1f ba       	out	0x1f, r1	; 31
    19d4:	92 bd       	out	0x22, r25	; 34
    19d6:	81 bd       	out	0x21, r24	; 33
    19d8:	20 bd       	out	0x20, r18	; 32
    19da:	0f b6       	in	r0, 0x3f	; 63
    19dc:	f8 94       	cli
    19de:	fa 9a       	sbi	0x1f, 2	; 31
    19e0:	f9 9a       	sbi	0x1f, 1	; 31
    19e2:	0f be       	out	0x3f, r0	; 63
    19e4:	01 96       	adiw	r24, 0x01	; 1
    19e6:	08 95       	ret

000019e8 <__divmodsi4>:
    19e8:	05 2e       	mov	r0, r21

000019ea <.Loc.1>:
    19ea:	97 fb       	bst	r25, 7

000019ec <.Loc.2>:
    19ec:	1e f4       	brtc	.+6      	; 0x19f4 <.L0^B1>

000019ee <.Loc.3>:
    19ee:	00 94       	com	r0

000019f0 <.Loc.4>:
    19f0:	0e 94 0b 0d 	call	0x1a16	; 0x1a16 <__negsi2>

000019f4 <.L0^B1>:
    19f4:	57 fd       	sbrc	r21, 7

000019f6 <.Loc.6>:
    19f6:	07 d0       	rcall	.+14     	; 0x1a06 <__divmodsi4_neg2>

000019f8 <.Loc.7>:
    19f8:	0e 94 26 0d 	call	0x1a4c	; 0x1a4c <__udivmodsi4>

000019fc <.Loc.8>:
    19fc:	07 fc       	sbrc	r0, 7

000019fe <.Loc.9>:
    19fe:	03 d0       	rcall	.+6      	; 0x1a06 <__divmodsi4_neg2>

00001a00 <.Loc.10>:
    1a00:	4e f4       	brtc	.+18     	; 0x1a14 <__divmodsi4_exit>

00001a02 <.Loc.11>:
    1a02:	0c 94 0b 0d 	jmp	0x1a16	; 0x1a16 <__negsi2>

00001a06 <__divmodsi4_neg2>:
    1a06:	50 95       	com	r21

00001a08 <.Loc.13>:
    1a08:	40 95       	com	r20

00001a0a <.Loc.14>:
    1a0a:	30 95       	com	r19

00001a0c <.Loc.15>:
    1a0c:	21 95       	neg	r18

00001a0e <.Loc.16>:
    1a0e:	3f 4f       	sbci	r19, 0xFF	; 255

00001a10 <.Loc.17>:
    1a10:	4f 4f       	sbci	r20, 0xFF	; 255

00001a12 <.Loc.18>:
    1a12:	5f 4f       	sbci	r21, 0xFF	; 255

00001a14 <__divmodsi4_exit>:
    1a14:	08 95       	ret

00001a16 <__negsi2>:
    1a16:	90 95       	com	r25
    1a18:	80 95       	com	r24
    1a1a:	70 95       	com	r23
    1a1c:	61 95       	neg	r22
    1a1e:	7f 4f       	sbci	r23, 0xFF	; 255
    1a20:	8f 4f       	sbci	r24, 0xFF	; 255
    1a22:	9f 4f       	sbci	r25, 0xFF	; 255

00001a24 <.Loc.1>:
    1a24:	08 95       	ret

00001a26 <__muluhisi3>:
    1a26:	0e 94 33 0a 	call	0x1466	; 0x1466 <__umulhisi3>

00001a2a <.Loc.1>:
    1a2a:	a5 9f       	mul	r26, r21

00001a2c <.Loc.2>:
    1a2c:	90 0d       	add	r25, r0

00001a2e <.Loc.3>:
    1a2e:	b4 9f       	mul	r27, r20

00001a30 <.Loc.4>:
    1a30:	90 0d       	add	r25, r0

00001a32 <.Loc.5>:
    1a32:	a4 9f       	mul	r26, r20

00001a34 <.Loc.6>:
    1a34:	80 0d       	add	r24, r0

00001a36 <.Loc.7>:
    1a36:	91 1d       	adc	r25, r1

00001a38 <.Loc.8>:
    1a38:	11 24       	eor	r1, r1

00001a3a <.Loc.9>:
    1a3a:	08 95       	ret

00001a3c <__mulshisi3>:
    1a3c:	b7 ff       	sbrs	r27, 7

00001a3e <.Loc.1>:
    1a3e:	0c 94 13 0d 	jmp	0x1a26	; 0x1a26 <__muluhisi3>

00001a42 <__mulohisi3>:
    1a42:	0e 94 13 0d 	call	0x1a26	; 0x1a26 <__muluhisi3>

00001a46 <.Loc.3>:
    1a46:	82 1b       	sub	r24, r18

00001a48 <.Loc.4>:
    1a48:	93 0b       	sbc	r25, r19

00001a4a <.Loc.5>:
    1a4a:	08 95       	ret

00001a4c <__udivmodsi4>:
    1a4c:	a1 e2       	ldi	r26, 0x21	; 33

00001a4e <.Loc.1>:
    1a4e:	1a 2e       	mov	r1, r26

00001a50 <.Loc.2>:
    1a50:	aa 1b       	sub	r26, r26

00001a52 <.Loc.3>:
    1a52:	bb 1b       	sub	r27, r27

00001a54 <.Loc.4>:
    1a54:	fd 01       	movw	r30, r26

00001a56 <.Loc.5>:
    1a56:	0d c0       	rjmp	.+26     	; 0x1a72 <__udivmodsi4_ep>

00001a58 <__udivmodsi4_loop>:
    1a58:	aa 1f       	adc	r26, r26

00001a5a <.Loc.7>:
    1a5a:	bb 1f       	adc	r27, r27

00001a5c <.Loc.8>:
    1a5c:	ee 1f       	adc	r30, r30

00001a5e <.Loc.9>:
    1a5e:	ff 1f       	adc	r31, r31

00001a60 <.Loc.10>:
    1a60:	a2 17       	cp	r26, r18

00001a62 <.Loc.11>:
    1a62:	b3 07       	cpc	r27, r19

00001a64 <.Loc.12>:
    1a64:	e4 07       	cpc	r30, r20

00001a66 <.Loc.13>:
    1a66:	f5 07       	cpc	r31, r21

00001a68 <.Loc.14>:
    1a68:	20 f0       	brcs	.+8      	; 0x1a72 <__udivmodsi4_ep>

00001a6a <.Loc.15>:
    1a6a:	a2 1b       	sub	r26, r18

00001a6c <.Loc.16>:
    1a6c:	b3 0b       	sbc	r27, r19

00001a6e <.Loc.17>:
    1a6e:	e4 0b       	sbc	r30, r20

00001a70 <.Loc.18>:
    1a70:	f5 0b       	sbc	r31, r21

00001a72 <__udivmodsi4_ep>:
    1a72:	66 1f       	adc	r22, r22

00001a74 <.Loc.20>:
    1a74:	77 1f       	adc	r23, r23

00001a76 <.Loc.21>:
    1a76:	88 1f       	adc	r24, r24

00001a78 <.Loc.22>:
    1a78:	99 1f       	adc	r25, r25

00001a7a <.Loc.23>:
    1a7a:	1a 94       	dec	r1

00001a7c <.Loc.24>:
    1a7c:	69 f7       	brne	.-38     	; 0x1a58 <__udivmodsi4_loop>

00001a7e <.Loc.25>:
    1a7e:	60 95       	com	r22

00001a80 <.Loc.26>:
    1a80:	70 95       	com	r23

00001a82 <.Loc.27>:
    1a82:	80 95       	com	r24

00001a84 <.Loc.28>:
    1a84:	90 95       	com	r25

00001a86 <.Loc.29>:
    1a86:	9b 01       	movw	r18, r22

00001a88 <.Loc.30>:
    1a88:	ac 01       	movw	r20, r24

00001a8a <.Loc.31>:
    1a8a:	bd 01       	movw	r22, r26

00001a8c <.Loc.32>:
    1a8c:	cf 01       	movw	r24, r30

00001a8e <.Loc.33>:
    1a8e:	08 95       	ret

00001a90 <_exit>:
    1a90:	f8 94       	cli

00001a92 <__stop_program>:
    1a92:	ff cf       	rjmp	.-2      	; 0x1a92 <__stop_program>

00001a94 <L0^A>:
    1a94:	4f 06       	cpc	r4, r31
    1a96:	a6 06       	cpc	r10, r22
    1a98:	bc 06       	cpc	r11, r28
    1a9a:	e8 06       	cpc	r14, r24
    1a9c:	ef 06       	cpc	r14, r31
    1a9e:	d2 06       	cpc	r13, r18
    1aa0:	f2 06       	cpc	r15, r18

00001aa2 <.L135>:
    1aa2:	6d 08       	sbc	r6, r13
    1aa4:	a6 07       	cpc	r26, r22
    1aa6:	a6 07       	cpc	r26, r22
    1aa8:	76 08       	sbc	r7, r6
    1aaa:	79 08       	sbc	r7, r9
    1aac:	7c 08       	sbc	r7, r12
    1aae:	80 08       	sbc	r8, r0
    1ab0:	82 08       	sbc	r8, r2
    1ab2:	84 08       	sbc	r8, r4
    1ab4:	31 09       	sbc	r19, r1
    1ab6:	96 08       	sbc	r9, r6
